
rtarget:     file format elf64-x86-64


Disassembly of section .init:

0000000000400bc8 <_init>:
  400bc8:	48 83 ec 08          	sub    $0x8,%rsp
  400bcc:	48 8b 05 25 44 20 00 	mov    0x204425(%rip),%rax        # 604ff8 <__gmon_start__>
  400bd3:	48 85 c0             	test   %rax,%rax
  400bd6:	74 05                	je     400bdd <_init+0x15>
  400bd8:	e8 33 01 00 00       	callq  400d10 <__gmon_start__@plt>
  400bdd:	48 83 c4 08          	add    $0x8,%rsp
  400be1:	c3                   	retq   

Disassembly of section .plt:

0000000000400bf0 <.plt>:
  400bf0:	ff 35 12 44 20 00    	pushq  0x204412(%rip)        # 605008 <_GLOBAL_OFFSET_TABLE_+0x8>
  400bf6:	ff 25 14 44 20 00    	jmpq   *0x204414(%rip)        # 605010 <_GLOBAL_OFFSET_TABLE_+0x10>
  400bfc:	0f 1f 40 00          	nopl   0x0(%rax)

0000000000400c00 <strcasecmp@plt>:
  400c00:	ff 25 12 44 20 00    	jmpq   *0x204412(%rip)        # 605018 <strcasecmp@GLIBC_2.2.5>
  400c06:	68 00 00 00 00       	pushq  $0x0
  400c0b:	e9 e0 ff ff ff       	jmpq   400bf0 <.plt>

0000000000400c10 <__errno_location@plt>:
  400c10:	ff 25 0a 44 20 00    	jmpq   *0x20440a(%rip)        # 605020 <__errno_location@GLIBC_2.2.5>
  400c16:	68 01 00 00 00       	pushq  $0x1
  400c1b:	e9 d0 ff ff ff       	jmpq   400bf0 <.plt>

0000000000400c20 <srandom@plt>:
  400c20:	ff 25 02 44 20 00    	jmpq   *0x204402(%rip)        # 605028 <srandom@GLIBC_2.2.5>
  400c26:	68 02 00 00 00       	pushq  $0x2
  400c2b:	e9 c0 ff ff ff       	jmpq   400bf0 <.plt>

0000000000400c30 <strncmp@plt>:
  400c30:	ff 25 fa 43 20 00    	jmpq   *0x2043fa(%rip)        # 605030 <strncmp@GLIBC_2.2.5>
  400c36:	68 03 00 00 00       	pushq  $0x3
  400c3b:	e9 b0 ff ff ff       	jmpq   400bf0 <.plt>

0000000000400c40 <strcpy@plt>:
  400c40:	ff 25 f2 43 20 00    	jmpq   *0x2043f2(%rip)        # 605038 <strcpy@GLIBC_2.2.5>
  400c46:	68 04 00 00 00       	pushq  $0x4
  400c4b:	e9 a0 ff ff ff       	jmpq   400bf0 <.plt>

0000000000400c50 <puts@plt>:
  400c50:	ff 25 ea 43 20 00    	jmpq   *0x2043ea(%rip)        # 605040 <puts@GLIBC_2.2.5>
  400c56:	68 05 00 00 00       	pushq  $0x5
  400c5b:	e9 90 ff ff ff       	jmpq   400bf0 <.plt>

0000000000400c60 <write@plt>:
  400c60:	ff 25 e2 43 20 00    	jmpq   *0x2043e2(%rip)        # 605048 <write@GLIBC_2.2.5>
  400c66:	68 06 00 00 00       	pushq  $0x6
  400c6b:	e9 80 ff ff ff       	jmpq   400bf0 <.plt>

0000000000400c70 <mmap@plt>:
  400c70:	ff 25 da 43 20 00    	jmpq   *0x2043da(%rip)        # 605050 <mmap@GLIBC_2.2.5>
  400c76:	68 07 00 00 00       	pushq  $0x7
  400c7b:	e9 70 ff ff ff       	jmpq   400bf0 <.plt>

0000000000400c80 <printf@plt>:
  400c80:	ff 25 d2 43 20 00    	jmpq   *0x2043d2(%rip)        # 605058 <printf@GLIBC_2.2.5>
  400c86:	68 08 00 00 00       	pushq  $0x8
  400c8b:	e9 60 ff ff ff       	jmpq   400bf0 <.plt>

0000000000400c90 <memset@plt>:
  400c90:	ff 25 ca 43 20 00    	jmpq   *0x2043ca(%rip)        # 605060 <memset@GLIBC_2.2.5>
  400c96:	68 09 00 00 00       	pushq  $0x9
  400c9b:	e9 50 ff ff ff       	jmpq   400bf0 <.plt>

0000000000400ca0 <alarm@plt>:
  400ca0:	ff 25 c2 43 20 00    	jmpq   *0x2043c2(%rip)        # 605068 <alarm@GLIBC_2.2.5>
  400ca6:	68 0a 00 00 00       	pushq  $0xa
  400cab:	e9 40 ff ff ff       	jmpq   400bf0 <.plt>

0000000000400cb0 <close@plt>:
  400cb0:	ff 25 ba 43 20 00    	jmpq   *0x2043ba(%rip)        # 605070 <close@GLIBC_2.2.5>
  400cb6:	68 0b 00 00 00       	pushq  $0xb
  400cbb:	e9 30 ff ff ff       	jmpq   400bf0 <.plt>

0000000000400cc0 <read@plt>:
  400cc0:	ff 25 b2 43 20 00    	jmpq   *0x2043b2(%rip)        # 605078 <read@GLIBC_2.2.5>
  400cc6:	68 0c 00 00 00       	pushq  $0xc
  400ccb:	e9 20 ff ff ff       	jmpq   400bf0 <.plt>

0000000000400cd0 <__libc_start_main@plt>:
  400cd0:	ff 25 aa 43 20 00    	jmpq   *0x2043aa(%rip)        # 605080 <__libc_start_main@GLIBC_2.2.5>
  400cd6:	68 0d 00 00 00       	pushq  $0xd
  400cdb:	e9 10 ff ff ff       	jmpq   400bf0 <.plt>

0000000000400ce0 <signal@plt>:
  400ce0:	ff 25 a2 43 20 00    	jmpq   *0x2043a2(%rip)        # 605088 <signal@GLIBC_2.2.5>
  400ce6:	68 0e 00 00 00       	pushq  $0xe
  400ceb:	e9 00 ff ff ff       	jmpq   400bf0 <.plt>

0000000000400cf0 <gethostbyname@plt>:
  400cf0:	ff 25 9a 43 20 00    	jmpq   *0x20439a(%rip)        # 605090 <gethostbyname@GLIBC_2.2.5>
  400cf6:	68 0f 00 00 00       	pushq  $0xf
  400cfb:	e9 f0 fe ff ff       	jmpq   400bf0 <.plt>

0000000000400d00 <fprintf@plt>:
  400d00:	ff 25 92 43 20 00    	jmpq   *0x204392(%rip)        # 605098 <fprintf@GLIBC_2.2.5>
  400d06:	68 10 00 00 00       	pushq  $0x10
  400d0b:	e9 e0 fe ff ff       	jmpq   400bf0 <.plt>

0000000000400d10 <__gmon_start__@plt>:
  400d10:	ff 25 8a 43 20 00    	jmpq   *0x20438a(%rip)        # 6050a0 <__gmon_start__>
  400d16:	68 11 00 00 00       	pushq  $0x11
  400d1b:	e9 d0 fe ff ff       	jmpq   400bf0 <.plt>

0000000000400d20 <strtol@plt>:
  400d20:	ff 25 82 43 20 00    	jmpq   *0x204382(%rip)        # 6050a8 <strtol@GLIBC_2.2.5>
  400d26:	68 12 00 00 00       	pushq  $0x12
  400d2b:	e9 c0 fe ff ff       	jmpq   400bf0 <.plt>

0000000000400d30 <memcpy@plt>:
  400d30:	ff 25 7a 43 20 00    	jmpq   *0x20437a(%rip)        # 6050b0 <memcpy@GLIBC_2.14>
  400d36:	68 13 00 00 00       	pushq  $0x13
  400d3b:	e9 b0 fe ff ff       	jmpq   400bf0 <.plt>

0000000000400d40 <time@plt>:
  400d40:	ff 25 72 43 20 00    	jmpq   *0x204372(%rip)        # 6050b8 <time@GLIBC_2.2.5>
  400d46:	68 14 00 00 00       	pushq  $0x14
  400d4b:	e9 a0 fe ff ff       	jmpq   400bf0 <.plt>

0000000000400d50 <random@plt>:
  400d50:	ff 25 6a 43 20 00    	jmpq   *0x20436a(%rip)        # 6050c0 <random@GLIBC_2.2.5>
  400d56:	68 15 00 00 00       	pushq  $0x15
  400d5b:	e9 90 fe ff ff       	jmpq   400bf0 <.plt>

0000000000400d60 <_IO_getc@plt>:
  400d60:	ff 25 62 43 20 00    	jmpq   *0x204362(%rip)        # 6050c8 <_IO_getc@GLIBC_2.2.5>
  400d66:	68 16 00 00 00       	pushq  $0x16
  400d6b:	e9 80 fe ff ff       	jmpq   400bf0 <.plt>

0000000000400d70 <__isoc99_sscanf@plt>:
  400d70:	ff 25 5a 43 20 00    	jmpq   *0x20435a(%rip)        # 6050d0 <__isoc99_sscanf@GLIBC_2.7>
  400d76:	68 17 00 00 00       	pushq  $0x17
  400d7b:	e9 70 fe ff ff       	jmpq   400bf0 <.plt>

0000000000400d80 <munmap@plt>:
  400d80:	ff 25 52 43 20 00    	jmpq   *0x204352(%rip)        # 6050d8 <munmap@GLIBC_2.2.5>
  400d86:	68 18 00 00 00       	pushq  $0x18
  400d8b:	e9 60 fe ff ff       	jmpq   400bf0 <.plt>

0000000000400d90 <bcopy@plt>:
  400d90:	ff 25 4a 43 20 00    	jmpq   *0x20434a(%rip)        # 6050e0 <bcopy@GLIBC_2.2.5>
  400d96:	68 19 00 00 00       	pushq  $0x19
  400d9b:	e9 50 fe ff ff       	jmpq   400bf0 <.plt>

0000000000400da0 <fopen@plt>:
  400da0:	ff 25 42 43 20 00    	jmpq   *0x204342(%rip)        # 6050e8 <fopen@GLIBC_2.2.5>
  400da6:	68 1a 00 00 00       	pushq  $0x1a
  400dab:	e9 40 fe ff ff       	jmpq   400bf0 <.plt>

0000000000400db0 <getopt@plt>:
  400db0:	ff 25 3a 43 20 00    	jmpq   *0x20433a(%rip)        # 6050f0 <getopt@GLIBC_2.2.5>
  400db6:	68 1b 00 00 00       	pushq  $0x1b
  400dbb:	e9 30 fe ff ff       	jmpq   400bf0 <.plt>

0000000000400dc0 <strtoul@plt>:
  400dc0:	ff 25 32 43 20 00    	jmpq   *0x204332(%rip)        # 6050f8 <strtoul@GLIBC_2.2.5>
  400dc6:	68 1c 00 00 00       	pushq  $0x1c
  400dcb:	e9 20 fe ff ff       	jmpq   400bf0 <.plt>

0000000000400dd0 <gethostname@plt>:
  400dd0:	ff 25 2a 43 20 00    	jmpq   *0x20432a(%rip)        # 605100 <gethostname@GLIBC_2.2.5>
  400dd6:	68 1d 00 00 00       	pushq  $0x1d
  400ddb:	e9 10 fe ff ff       	jmpq   400bf0 <.plt>

0000000000400de0 <sprintf@plt>:
  400de0:	ff 25 22 43 20 00    	jmpq   *0x204322(%rip)        # 605108 <sprintf@GLIBC_2.2.5>
  400de6:	68 1e 00 00 00       	pushq  $0x1e
  400deb:	e9 00 fe ff ff       	jmpq   400bf0 <.plt>

0000000000400df0 <exit@plt>:
  400df0:	ff 25 1a 43 20 00    	jmpq   *0x20431a(%rip)        # 605110 <exit@GLIBC_2.2.5>
  400df6:	68 1f 00 00 00       	pushq  $0x1f
  400dfb:	e9 f0 fd ff ff       	jmpq   400bf0 <.plt>

0000000000400e00 <connect@plt>:
  400e00:	ff 25 12 43 20 00    	jmpq   *0x204312(%rip)        # 605118 <connect@GLIBC_2.2.5>
  400e06:	68 20 00 00 00       	pushq  $0x20
  400e0b:	e9 e0 fd ff ff       	jmpq   400bf0 <.plt>

0000000000400e10 <socket@plt>:
  400e10:	ff 25 0a 43 20 00    	jmpq   *0x20430a(%rip)        # 605120 <socket@GLIBC_2.2.5>
  400e16:	68 21 00 00 00       	pushq  $0x21
  400e1b:	e9 d0 fd ff ff       	jmpq   400bf0 <.plt>

Disassembly of section .text:

0000000000400e20 <_start>:
  400e20:	31 ed                	xor    %ebp,%ebp
  400e22:	49 89 d1             	mov    %rdx,%r9
  400e25:	5e                   	pop    %rsi
  400e26:	48 89 e2             	mov    %rsp,%rdx
  400e29:	48 83 e4 f0          	and    $0xfffffffffffffff0,%rsp
  400e2d:	50                   	push   %rax
  400e2e:	54                   	push   %rsp
  400e2f:	49 c7 c0 30 2d 40 00 	mov    $0x402d30,%r8
  400e36:	48 c7 c1 c0 2c 40 00 	mov    $0x402cc0,%rcx
  400e3d:	48 c7 c7 e0 10 40 00 	mov    $0x4010e0,%rdi
  400e44:	e8 87 fe ff ff       	callq  400cd0 <__libc_start_main@plt>
  400e49:	f4                   	hlt    
  400e4a:	66 0f 1f 44 00 00    	nopw   0x0(%rax,%rax,1)

0000000000400e50 <deregister_tm_clones>:
  400e50:	b8 b7 54 60 00       	mov    $0x6054b7,%eax
  400e55:	55                   	push   %rbp
  400e56:	48 2d b0 54 60 00    	sub    $0x6054b0,%rax
  400e5c:	48 83 f8 0e          	cmp    $0xe,%rax
  400e60:	48 89 e5             	mov    %rsp,%rbp
  400e63:	77 02                	ja     400e67 <deregister_tm_clones+0x17>
  400e65:	5d                   	pop    %rbp
  400e66:	c3                   	retq   
  400e67:	b8 00 00 00 00       	mov    $0x0,%eax
  400e6c:	48 85 c0             	test   %rax,%rax
  400e6f:	74 f4                	je     400e65 <deregister_tm_clones+0x15>
  400e71:	5d                   	pop    %rbp
  400e72:	bf b0 54 60 00       	mov    $0x6054b0,%edi
  400e77:	ff e0                	jmpq   *%rax
  400e79:	0f 1f 80 00 00 00 00 	nopl   0x0(%rax)

0000000000400e80 <register_tm_clones>:
  400e80:	b8 b0 54 60 00       	mov    $0x6054b0,%eax
  400e85:	55                   	push   %rbp
  400e86:	48 2d b0 54 60 00    	sub    $0x6054b0,%rax
  400e8c:	48 c1 f8 03          	sar    $0x3,%rax
  400e90:	48 89 e5             	mov    %rsp,%rbp
  400e93:	48 89 c2             	mov    %rax,%rdx
  400e96:	48 c1 ea 3f          	shr    $0x3f,%rdx
  400e9a:	48 01 d0             	add    %rdx,%rax
  400e9d:	48 d1 f8             	sar    %rax
  400ea0:	75 02                	jne    400ea4 <register_tm_clones+0x24>
  400ea2:	5d                   	pop    %rbp
  400ea3:	c3                   	retq   
  400ea4:	ba 00 00 00 00       	mov    $0x0,%edx
  400ea9:	48 85 d2             	test   %rdx,%rdx
  400eac:	74 f4                	je     400ea2 <register_tm_clones+0x22>
  400eae:	5d                   	pop    %rbp
  400eaf:	48 89 c6             	mov    %rax,%rsi
  400eb2:	bf b0 54 60 00       	mov    $0x6054b0,%edi
  400eb7:	ff e2                	jmpq   *%rdx
  400eb9:	0f 1f 80 00 00 00 00 	nopl   0x0(%rax)

0000000000400ec0 <__do_global_dtors_aux>:
  400ec0:	80 3d 11 46 20 00 00 	cmpb   $0x0,0x204611(%rip)        # 6054d8 <completed.6344>
  400ec7:	75 11                	jne    400eda <__do_global_dtors_aux+0x1a>
  400ec9:	55                   	push   %rbp
  400eca:	48 89 e5             	mov    %rsp,%rbp
  400ecd:	e8 7e ff ff ff       	callq  400e50 <deregister_tm_clones>
  400ed2:	5d                   	pop    %rbp
  400ed3:	c6 05 fe 45 20 00 01 	movb   $0x1,0x2045fe(%rip)        # 6054d8 <completed.6344>
  400eda:	f3 c3                	repz retq 
  400edc:	0f 1f 40 00          	nopl   0x0(%rax)

0000000000400ee0 <frame_dummy>:
  400ee0:	48 83 3d 38 3f 20 00 	cmpq   $0x0,0x203f38(%rip)        # 604e20 <__JCR_END__>
  400ee7:	00 
  400ee8:	74 1e                	je     400f08 <frame_dummy+0x28>
  400eea:	b8 00 00 00 00       	mov    $0x0,%eax
  400eef:	48 85 c0             	test   %rax,%rax
  400ef2:	74 14                	je     400f08 <frame_dummy+0x28>
  400ef4:	55                   	push   %rbp
  400ef5:	bf 20 4e 60 00       	mov    $0x604e20,%edi
  400efa:	48 89 e5             	mov    %rsp,%rbp
  400efd:	ff d0                	callq  *%rax
  400eff:	5d                   	pop    %rbp
  400f00:	e9 7b ff ff ff       	jmpq   400e80 <register_tm_clones>
  400f05:	0f 1f 00             	nopl   (%rax)
  400f08:	e9 73 ff ff ff       	jmpq   400e80 <register_tm_clones>
  400f0d:	0f 1f 00             	nopl   (%rax)

0000000000400f10 <usage>:
  400f10:	48 83 ec 08          	sub    $0x8,%rsp
  400f14:	48 89 fe             	mov    %rdi,%rsi
  400f17:	83 3d ea 45 20 00 00 	cmpl   $0x0,0x2045ea(%rip)        # 605508 <is_checker>
  400f1e:	74 39                	je     400f59 <usage+0x49>
  400f20:	bf 50 2d 40 00       	mov    $0x402d50,%edi
  400f25:	b8 00 00 00 00       	mov    $0x0,%eax
  400f2a:	e8 51 fd ff ff       	callq  400c80 <printf@plt>
  400f2f:	bf 88 2d 40 00       	mov    $0x402d88,%edi
  400f34:	e8 17 fd ff ff       	callq  400c50 <puts@plt>
  400f39:	bf 00 2f 40 00       	mov    $0x402f00,%edi
  400f3e:	e8 0d fd ff ff       	callq  400c50 <puts@plt>
  400f43:	bf b0 2d 40 00       	mov    $0x402db0,%edi
  400f48:	e8 03 fd ff ff       	callq  400c50 <puts@plt>
  400f4d:	bf 1a 2f 40 00       	mov    $0x402f1a,%edi
  400f52:	e8 f9 fc ff ff       	callq  400c50 <puts@plt>
  400f57:	eb 2d                	jmp    400f86 <usage+0x76>
  400f59:	bf 36 2f 40 00       	mov    $0x402f36,%edi
  400f5e:	b8 00 00 00 00       	mov    $0x0,%eax
  400f63:	e8 18 fd ff ff       	callq  400c80 <printf@plt>
  400f68:	bf d8 2d 40 00       	mov    $0x402dd8,%edi
  400f6d:	e8 de fc ff ff       	callq  400c50 <puts@plt>
  400f72:	bf 00 2e 40 00       	mov    $0x402e00,%edi
  400f77:	e8 d4 fc ff ff       	callq  400c50 <puts@plt>
  400f7c:	bf 54 2f 40 00       	mov    $0x402f54,%edi
  400f81:	e8 ca fc ff ff       	callq  400c50 <puts@plt>
  400f86:	bf 00 00 00 00       	mov    $0x0,%edi
  400f8b:	e8 60 fe ff ff       	callq  400df0 <exit@plt>

0000000000400f90 <initialize_target>:
  400f90:	55                   	push   %rbp
  400f91:	53                   	push   %rbx
  400f92:	48 81 ec 08 21 00 00 	sub    $0x2108,%rsp
  400f99:	89 f5                	mov    %esi,%ebp
  400f9b:	89 3d 57 45 20 00    	mov    %edi,0x204557(%rip)        # 6054f8 <check_level>
  400fa1:	8b 3d c1 41 20 00    	mov    0x2041c1(%rip),%edi        # 605168 <target_id>
  400fa7:	e8 e7 1c 00 00       	callq  402c93 <gencookie>
  400fac:	89 05 52 45 20 00    	mov    %eax,0x204552(%rip)        # 605504 <cookie>
  400fb2:	89 c7                	mov    %eax,%edi
  400fb4:	e8 da 1c 00 00       	callq  402c93 <gencookie>
  400fb9:	89 05 41 45 20 00    	mov    %eax,0x204541(%rip)        # 605500 <authkey>
  400fbf:	8b 05 a3 41 20 00    	mov    0x2041a3(%rip),%eax        # 605168 <target_id>
  400fc5:	8d 78 01             	lea    0x1(%rax),%edi
  400fc8:	e8 53 fc ff ff       	callq  400c20 <srandom@plt>
  400fcd:	e8 7e fd ff ff       	callq  400d50 <random@plt>
  400fd2:	89 c7                	mov    %eax,%edi
  400fd4:	e8 ca 02 00 00       	callq  4012a3 <scramble>
  400fd9:	89 c3                	mov    %eax,%ebx
  400fdb:	85 ed                	test   %ebp,%ebp
  400fdd:	74 18                	je     400ff7 <initialize_target+0x67>
  400fdf:	bf 00 00 00 00       	mov    $0x0,%edi
  400fe4:	e8 57 fd ff ff       	callq  400d40 <time@plt>
  400fe9:	89 c7                	mov    %eax,%edi
  400feb:	e8 30 fc ff ff       	callq  400c20 <srandom@plt>
  400ff0:	e8 5b fd ff ff       	callq  400d50 <random@plt>
  400ff5:	eb 05                	jmp    400ffc <initialize_target+0x6c>
  400ff7:	b8 00 00 00 00       	mov    $0x0,%eax
  400ffc:	01 c3                	add    %eax,%ebx
  400ffe:	0f b7 db             	movzwl %bx,%ebx
  401001:	8d 04 dd 00 01 00 00 	lea    0x100(,%rbx,8),%eax
  401008:	89 c0                	mov    %eax,%eax
  40100a:	48 89 05 8f 44 20 00 	mov    %rax,0x20448f(%rip)        # 6054a0 <buf_offset>
  401011:	c6 05 10 51 20 00 72 	movb   $0x72,0x205110(%rip)        # 606128 <target_prefix>
  401018:	83 3d 89 44 20 00 00 	cmpl   $0x0,0x204489(%rip)        # 6054a8 <notify>
  40101f:	0f 84 b1 00 00 00    	je     4010d6 <initialize_target+0x146>
  401025:	83 3d dc 44 20 00 00 	cmpl   $0x0,0x2044dc(%rip)        # 605508 <is_checker>
  40102c:	0f 85 a4 00 00 00    	jne    4010d6 <initialize_target+0x146>
  401032:	be 00 01 00 00       	mov    $0x100,%esi
  401037:	48 89 e7             	mov    %rsp,%rdi
  40103a:	e8 91 fd ff ff       	callq  400dd0 <gethostname@plt>
  40103f:	85 c0                	test   %eax,%eax
  401041:	74 25                	je     401068 <initialize_target+0xd8>
  401043:	bf 30 2e 40 00       	mov    $0x402e30,%edi
  401048:	e8 03 fc ff ff       	callq  400c50 <puts@plt>
  40104d:	bf 08 00 00 00       	mov    $0x8,%edi
  401052:	e8 99 fd ff ff       	callq  400df0 <exit@plt>
  401057:	48 89 e6             	mov    %rsp,%rsi
  40105a:	e8 a1 fb ff ff       	callq  400c00 <strcasecmp@plt>
  40105f:	85 c0                	test   %eax,%eax
  401061:	74 21                	je     401084 <initialize_target+0xf4>
  401063:	83 c3 01             	add    $0x1,%ebx
  401066:	eb 05                	jmp    40106d <initialize_target+0xdd>
  401068:	bb 00 00 00 00       	mov    $0x0,%ebx
  40106d:	48 63 c3             	movslq %ebx,%rax
  401070:	48 8b 3c c5 80 51 60 	mov    0x605180(,%rax,8),%rdi
  401077:	00 
  401078:	48 85 ff             	test   %rdi,%rdi
  40107b:	75 da                	jne    401057 <initialize_target+0xc7>
  40107d:	b8 00 00 00 00       	mov    $0x0,%eax
  401082:	eb 05                	jmp    401089 <initialize_target+0xf9>
  401084:	b8 01 00 00 00       	mov    $0x1,%eax
  401089:	85 c0                	test   %eax,%eax
  40108b:	75 17                	jne    4010a4 <initialize_target+0x114>
  40108d:	48 89 e6             	mov    %rsp,%rsi
  401090:	bf 68 2e 40 00       	mov    $0x402e68,%edi
  401095:	e8 e6 fb ff ff       	callq  400c80 <printf@plt>
  40109a:	bf 08 00 00 00       	mov    $0x8,%edi
  40109f:	e8 4c fd ff ff       	callq  400df0 <exit@plt>
  4010a4:	48 8d bc 24 00 01 00 	lea    0x100(%rsp),%rdi
  4010ab:	00 
  4010ac:	e8 79 19 00 00       	callq  402a2a <init_driver>
  4010b1:	85 c0                	test   %eax,%eax
  4010b3:	79 21                	jns    4010d6 <initialize_target+0x146>
  4010b5:	48 8d b4 24 00 01 00 	lea    0x100(%rsp),%rsi
  4010bc:	00 
  4010bd:	bf a8 2e 40 00       	mov    $0x402ea8,%edi
  4010c2:	b8 00 00 00 00       	mov    $0x0,%eax
  4010c7:	e8 b4 fb ff ff       	callq  400c80 <printf@plt>
  4010cc:	bf 08 00 00 00       	mov    $0x8,%edi
  4010d1:	e8 1a fd ff ff       	callq  400df0 <exit@plt>
  4010d6:	48 81 c4 08 21 00 00 	add    $0x2108,%rsp
  4010dd:	5b                   	pop    %rbx
  4010de:	5d                   	pop    %rbp
  4010df:	c3                   	retq   

00000000004010e0 <main>:
  4010e0:	41 56                	push   %r14
  4010e2:	41 55                	push   %r13
  4010e4:	41 54                	push   %r12
  4010e6:	55                   	push   %rbp
  4010e7:	53                   	push   %rbx
  4010e8:	41 89 fc             	mov    %edi,%r12d
  4010eb:	48 89 f3             	mov    %rsi,%rbx
  4010ee:	be 51 1e 40 00       	mov    $0x401e51,%esi
  4010f3:	bf 0b 00 00 00       	mov    $0xb,%edi
  4010f8:	e8 e3 fb ff ff       	callq  400ce0 <signal@plt>
  4010fd:	be 03 1e 40 00       	mov    $0x401e03,%esi
  401102:	bf 07 00 00 00       	mov    $0x7,%edi
  401107:	e8 d4 fb ff ff       	callq  400ce0 <signal@plt>
  40110c:	be 9f 1e 40 00       	mov    $0x401e9f,%esi
  401111:	bf 04 00 00 00       	mov    $0x4,%edi
  401116:	e8 c5 fb ff ff       	callq  400ce0 <signal@plt>
  40111b:	83 3d e6 43 20 00 00 	cmpl   $0x0,0x2043e6(%rip)        # 605508 <is_checker>
  401122:	74 20                	je     401144 <main+0x64>
  401124:	be ed 1e 40 00       	mov    $0x401eed,%esi
  401129:	bf 0e 00 00 00       	mov    $0xe,%edi
  40112e:	e8 ad fb ff ff       	callq  400ce0 <signal@plt>
  401133:	bf 05 00 00 00       	mov    $0x5,%edi
  401138:	e8 63 fb ff ff       	callq  400ca0 <alarm@plt>
  40113d:	bd 72 2f 40 00       	mov    $0x402f72,%ebp
  401142:	eb 05                	jmp    401149 <main+0x69>
  401144:	bd 6d 2f 40 00       	mov    $0x402f6d,%ebp
  401149:	48 8b 05 70 43 20 00 	mov    0x204370(%rip),%rax        # 6054c0 <stdin@@GLIBC_2.2.5>
  401150:	48 89 05 99 43 20 00 	mov    %rax,0x204399(%rip)        # 6054f0 <infile>
  401157:	41 bd 00 00 00 00    	mov    $0x0,%r13d
  40115d:	41 be 00 00 00 00    	mov    $0x0,%r14d
  401163:	e9 b9 00 00 00       	jmpq   401221 <main+0x141>
  401168:	83 e8 61             	sub    $0x61,%eax
  40116b:	3c 10                	cmp    $0x10,%al
  40116d:	0f 87 93 00 00 00    	ja     401206 <main+0x126>
  401173:	0f b6 c0             	movzbl %al,%eax
  401176:	ff 24 c5 b8 2f 40 00 	jmpq   *0x402fb8(,%rax,8)
  40117d:	48 8b 3b             	mov    (%rbx),%rdi
  401180:	e8 8b fd ff ff       	callq  400f10 <usage>
  401185:	be d5 33 40 00       	mov    $0x4033d5,%esi
  40118a:	48 8b 3d 37 43 20 00 	mov    0x204337(%rip),%rdi        # 6054c8 <optarg@@GLIBC_2.2.5>
  401191:	e8 0a fc ff ff       	callq  400da0 <fopen@plt>
  401196:	48 89 05 53 43 20 00 	mov    %rax,0x204353(%rip)        # 6054f0 <infile>
  40119d:	48 85 c0             	test   %rax,%rax
  4011a0:	75 7f                	jne    401221 <main+0x141>
  4011a2:	48 8b 15 1f 43 20 00 	mov    0x20431f(%rip),%rdx        # 6054c8 <optarg@@GLIBC_2.2.5>
  4011a9:	be 7a 2f 40 00       	mov    $0x402f7a,%esi
  4011ae:	48 8b 3d 1b 43 20 00 	mov    0x20431b(%rip),%rdi        # 6054d0 <stderr@@GLIBC_2.2.5>
  4011b5:	e8 46 fb ff ff       	callq  400d00 <fprintf@plt>
  4011ba:	b8 01 00 00 00       	mov    $0x1,%eax
  4011bf:	e9 d6 00 00 00       	jmpq   40129a <main+0x1ba>
  4011c4:	ba 10 00 00 00       	mov    $0x10,%edx
  4011c9:	be 00 00 00 00       	mov    $0x0,%esi
  4011ce:	48 8b 3d f3 42 20 00 	mov    0x2042f3(%rip),%rdi        # 6054c8 <optarg@@GLIBC_2.2.5>
  4011d5:	e8 e6 fb ff ff       	callq  400dc0 <strtoul@plt>
  4011da:	41 89 c6             	mov    %eax,%r14d
  4011dd:	eb 42                	jmp    401221 <main+0x141>
  4011df:	ba 0a 00 00 00       	mov    $0xa,%edx
  4011e4:	be 00 00 00 00       	mov    $0x0,%esi
  4011e9:	48 8b 3d d8 42 20 00 	mov    0x2042d8(%rip),%rdi        # 6054c8 <optarg@@GLIBC_2.2.5>
  4011f0:	e8 2b fb ff ff       	callq  400d20 <strtol@plt>
  4011f5:	41 89 c5             	mov    %eax,%r13d
  4011f8:	eb 27                	jmp    401221 <main+0x141>
  4011fa:	c7 05 a4 42 20 00 00 	movl   $0x0,0x2042a4(%rip)        # 6054a8 <notify>
  401201:	00 00 00 
  401204:	eb 1b                	jmp    401221 <main+0x141>
  401206:	40 0f be f6          	movsbl %sil,%esi
  40120a:	bf 97 2f 40 00       	mov    $0x402f97,%edi
  40120f:	b8 00 00 00 00       	mov    $0x0,%eax
  401214:	e8 67 fa ff ff       	callq  400c80 <printf@plt>
  401219:	48 8b 3b             	mov    (%rbx),%rdi
  40121c:	e8 ef fc ff ff       	callq  400f10 <usage>
  401221:	48 89 ea             	mov    %rbp,%rdx
  401224:	48 89 de             	mov    %rbx,%rsi
  401227:	44 89 e7             	mov    %r12d,%edi
  40122a:	e8 81 fb ff ff       	callq  400db0 <getopt@plt>
  40122f:	89 c6                	mov    %eax,%esi
  401231:	3c ff                	cmp    $0xff,%al
  401233:	0f 85 2f ff ff ff    	jne    401168 <main+0x88>
  401239:	be 01 00 00 00       	mov    $0x1,%esi
  40123e:	44 89 ef             	mov    %r13d,%edi
  401241:	e8 4a fd ff ff       	callq  400f90 <initialize_target>
  401246:	83 3d bb 42 20 00 00 	cmpl   $0x0,0x2042bb(%rip)        # 605508 <is_checker>
  40124d:	74 25                	je     401274 <main+0x194>
  40124f:	44 3b 35 aa 42 20 00 	cmp    0x2042aa(%rip),%r14d        # 605500 <authkey>
  401256:	74 1c                	je     401274 <main+0x194>
  401258:	44 89 f6             	mov    %r14d,%esi
  40125b:	bf d0 2e 40 00       	mov    $0x402ed0,%edi
  401260:	b8 00 00 00 00       	mov    $0x0,%eax
  401265:	e8 16 fa ff ff       	callq  400c80 <printf@plt>
  40126a:	b8 00 00 00 00       	mov    $0x0,%eax
  40126f:	e8 97 08 00 00       	callq  401b0b <check_fail>
  401274:	8b 35 8a 42 20 00    	mov    0x20428a(%rip),%esi        # 605504 <cookie>
  40127a:	bf aa 2f 40 00       	mov    $0x402faa,%edi
  40127f:	b8 00 00 00 00       	mov    $0x0,%eax
  401284:	e8 f7 f9 ff ff       	callq  400c80 <printf@plt>
  401289:	48 8b 3d 10 42 20 00 	mov    0x204210(%rip),%rdi        # 6054a0 <buf_offset>
  401290:	e8 a6 0c 00 00       	callq  401f3b <launch>
  401295:	b8 00 00 00 00       	mov    $0x0,%eax
  40129a:	5b                   	pop    %rbx
  40129b:	5d                   	pop    %rbp
  40129c:	41 5c                	pop    %r12
  40129e:	41 5d                	pop    %r13
  4012a0:	41 5e                	pop    %r14
  4012a2:	c3                   	retq   

00000000004012a3 <scramble>:
  4012a3:	b8 00 00 00 00       	mov    $0x0,%eax
  4012a8:	eb 11                	jmp    4012bb <scramble+0x18>
  4012aa:	69 c8 ec e1 00 00    	imul   $0xe1ec,%eax,%ecx
  4012b0:	01 f9                	add    %edi,%ecx
  4012b2:	89 c2                	mov    %eax,%edx
  4012b4:	89 4c 94 d0          	mov    %ecx,-0x30(%rsp,%rdx,4)
  4012b8:	83 c0 01             	add    $0x1,%eax
  4012bb:	83 f8 09             	cmp    $0x9,%eax
  4012be:	76 ea                	jbe    4012aa <scramble+0x7>
  4012c0:	8b 44 24 dc          	mov    -0x24(%rsp),%eax
  4012c4:	69 c0 d2 4a 00 00    	imul   $0x4ad2,%eax,%eax
  4012ca:	89 44 24 dc          	mov    %eax,-0x24(%rsp)
  4012ce:	8b 44 24 f0          	mov    -0x10(%rsp),%eax
  4012d2:	69 c0 da ad 00 00    	imul   $0xadda,%eax,%eax
  4012d8:	89 44 24 f0          	mov    %eax,-0x10(%rsp)
  4012dc:	8b 44 24 f0          	mov    -0x10(%rsp),%eax
  4012e0:	69 c0 8f 96 00 00    	imul   $0x968f,%eax,%eax
  4012e6:	89 44 24 f0          	mov    %eax,-0x10(%rsp)
  4012ea:	8b 44 24 e0          	mov    -0x20(%rsp),%eax
  4012ee:	69 c0 c6 ca 00 00    	imul   $0xcac6,%eax,%eax
  4012f4:	89 44 24 e0          	mov    %eax,-0x20(%rsp)
  4012f8:	8b 44 24 e4          	mov    -0x1c(%rsp),%eax
  4012fc:	69 c0 f7 5a 00 00    	imul   $0x5af7,%eax,%eax
  401302:	89 44 24 e4          	mov    %eax,-0x1c(%rsp)
  401306:	8b 44 24 dc          	mov    -0x24(%rsp),%eax
  40130a:	69 c0 48 2e 00 00    	imul   $0x2e48,%eax,%eax
  401310:	89 44 24 dc          	mov    %eax,-0x24(%rsp)
  401314:	8b 44 24 e4          	mov    -0x1c(%rsp),%eax
  401318:	69 c0 96 37 00 00    	imul   $0x3796,%eax,%eax
  40131e:	89 44 24 e4          	mov    %eax,-0x1c(%rsp)
  401322:	8b 44 24 d4          	mov    -0x2c(%rsp),%eax
  401326:	69 c0 56 b9 00 00    	imul   $0xb956,%eax,%eax
  40132c:	89 44 24 d4          	mov    %eax,-0x2c(%rsp)
  401330:	8b 44 24 d8          	mov    -0x28(%rsp),%eax
  401334:	69 c0 97 f4 00 00    	imul   $0xf497,%eax,%eax
  40133a:	89 44 24 d8          	mov    %eax,-0x28(%rsp)
  40133e:	8b 44 24 f0          	mov    -0x10(%rsp),%eax
  401342:	69 c0 50 43 00 00    	imul   $0x4350,%eax,%eax
  401348:	89 44 24 f0          	mov    %eax,-0x10(%rsp)
  40134c:	8b 44 24 e4          	mov    -0x1c(%rsp),%eax
  401350:	69 c0 e1 0e 00 00    	imul   $0xee1,%eax,%eax
  401356:	89 44 24 e4          	mov    %eax,-0x1c(%rsp)
  40135a:	8b 44 24 e0          	mov    -0x20(%rsp),%eax
  40135e:	69 c0 4f 14 00 00    	imul   $0x144f,%eax,%eax
  401364:	89 44 24 e0          	mov    %eax,-0x20(%rsp)
  401368:	8b 44 24 d0          	mov    -0x30(%rsp),%eax
  40136c:	69 c0 89 cd 00 00    	imul   $0xcd89,%eax,%eax
  401372:	89 44 24 d0          	mov    %eax,-0x30(%rsp)
  401376:	8b 44 24 d4          	mov    -0x2c(%rsp),%eax
  40137a:	69 c0 fe 3a 00 00    	imul   $0x3afe,%eax,%eax
  401380:	89 44 24 d4          	mov    %eax,-0x2c(%rsp)
  401384:	8b 44 24 d0          	mov    -0x30(%rsp),%eax
  401388:	69 c0 d7 70 00 00    	imul   $0x70d7,%eax,%eax
  40138e:	89 44 24 d0          	mov    %eax,-0x30(%rsp)
  401392:	8b 44 24 f4          	mov    -0xc(%rsp),%eax
  401396:	69 c0 0b 08 00 00    	imul   $0x80b,%eax,%eax
  40139c:	89 44 24 f4          	mov    %eax,-0xc(%rsp)
  4013a0:	8b 44 24 ec          	mov    -0x14(%rsp),%eax
  4013a4:	69 c0 7f 3a 00 00    	imul   $0x3a7f,%eax,%eax
  4013aa:	89 44 24 ec          	mov    %eax,-0x14(%rsp)
  4013ae:	8b 44 24 d4          	mov    -0x2c(%rsp),%eax
  4013b2:	69 c0 6a d6 00 00    	imul   $0xd66a,%eax,%eax
  4013b8:	89 44 24 d4          	mov    %eax,-0x2c(%rsp)
  4013bc:	8b 44 24 e8          	mov    -0x18(%rsp),%eax
  4013c0:	69 c0 40 8d 00 00    	imul   $0x8d40,%eax,%eax
  4013c6:	89 44 24 e8          	mov    %eax,-0x18(%rsp)
  4013ca:	8b 44 24 dc          	mov    -0x24(%rsp),%eax
  4013ce:	69 c0 f3 c8 00 00    	imul   $0xc8f3,%eax,%eax
  4013d4:	89 44 24 dc          	mov    %eax,-0x24(%rsp)
  4013d8:	8b 44 24 f4          	mov    -0xc(%rsp),%eax
  4013dc:	69 c0 85 57 00 00    	imul   $0x5785,%eax,%eax
  4013e2:	89 44 24 f4          	mov    %eax,-0xc(%rsp)
  4013e6:	8b 44 24 e8          	mov    -0x18(%rsp),%eax
  4013ea:	69 c0 b5 32 00 00    	imul   $0x32b5,%eax,%eax
  4013f0:	89 44 24 e8          	mov    %eax,-0x18(%rsp)
  4013f4:	8b 44 24 d4          	mov    -0x2c(%rsp),%eax
  4013f8:	69 c0 00 5a 00 00    	imul   $0x5a00,%eax,%eax
  4013fe:	89 44 24 d4          	mov    %eax,-0x2c(%rsp)
  401402:	8b 44 24 e4          	mov    -0x1c(%rsp),%eax
  401406:	69 c0 f5 39 00 00    	imul   $0x39f5,%eax,%eax
  40140c:	89 44 24 e4          	mov    %eax,-0x1c(%rsp)
  401410:	8b 44 24 e4          	mov    -0x1c(%rsp),%eax
  401414:	69 c0 ce a4 00 00    	imul   $0xa4ce,%eax,%eax
  40141a:	89 44 24 e4          	mov    %eax,-0x1c(%rsp)
  40141e:	8b 44 24 dc          	mov    -0x24(%rsp),%eax
  401422:	69 c0 9e 6b 00 00    	imul   $0x6b9e,%eax,%eax
  401428:	89 44 24 dc          	mov    %eax,-0x24(%rsp)
  40142c:	8b 44 24 e4          	mov    -0x1c(%rsp),%eax
  401430:	69 c0 b3 d9 00 00    	imul   $0xd9b3,%eax,%eax
  401436:	89 44 24 e4          	mov    %eax,-0x1c(%rsp)
  40143a:	8b 44 24 e0          	mov    -0x20(%rsp),%eax
  40143e:	69 c0 05 74 00 00    	imul   $0x7405,%eax,%eax
  401444:	89 44 24 e0          	mov    %eax,-0x20(%rsp)
  401448:	8b 44 24 ec          	mov    -0x14(%rsp),%eax
  40144c:	69 c0 c5 c9 00 00    	imul   $0xc9c5,%eax,%eax
  401452:	89 44 24 ec          	mov    %eax,-0x14(%rsp)
  401456:	8b 44 24 ec          	mov    -0x14(%rsp),%eax
  40145a:	69 c0 5b cd 00 00    	imul   $0xcd5b,%eax,%eax
  401460:	89 44 24 ec          	mov    %eax,-0x14(%rsp)
  401464:	8b 44 24 e8          	mov    -0x18(%rsp),%eax
  401468:	69 c0 e1 7a 00 00    	imul   $0x7ae1,%eax,%eax
  40146e:	89 44 24 e8          	mov    %eax,-0x18(%rsp)
  401472:	8b 44 24 d4          	mov    -0x2c(%rsp),%eax
  401476:	69 c0 46 f6 00 00    	imul   $0xf646,%eax,%eax
  40147c:	89 44 24 d4          	mov    %eax,-0x2c(%rsp)
  401480:	8b 44 24 f0          	mov    -0x10(%rsp),%eax
  401484:	69 c0 4c 8b 00 00    	imul   $0x8b4c,%eax,%eax
  40148a:	89 44 24 f0          	mov    %eax,-0x10(%rsp)
  40148e:	8b 44 24 e0          	mov    -0x20(%rsp),%eax
  401492:	69 c0 70 86 00 00    	imul   $0x8670,%eax,%eax
  401498:	89 44 24 e0          	mov    %eax,-0x20(%rsp)
  40149c:	8b 44 24 d4          	mov    -0x2c(%rsp),%eax
  4014a0:	69 c0 e1 6d 00 00    	imul   $0x6de1,%eax,%eax
  4014a6:	89 44 24 d4          	mov    %eax,-0x2c(%rsp)
  4014aa:	8b 44 24 d0          	mov    -0x30(%rsp),%eax
  4014ae:	69 c0 c3 00 00 00    	imul   $0xc3,%eax,%eax
  4014b4:	89 44 24 d0          	mov    %eax,-0x30(%rsp)
  4014b8:	8b 44 24 f0          	mov    -0x10(%rsp),%eax
  4014bc:	69 c0 9e 46 00 00    	imul   $0x469e,%eax,%eax
  4014c2:	89 44 24 f0          	mov    %eax,-0x10(%rsp)
  4014c6:	8b 44 24 e0          	mov    -0x20(%rsp),%eax
  4014ca:	69 c0 82 54 00 00    	imul   $0x5482,%eax,%eax
  4014d0:	89 44 24 e0          	mov    %eax,-0x20(%rsp)
  4014d4:	8b 44 24 e8          	mov    -0x18(%rsp),%eax
  4014d8:	69 c0 84 1f 00 00    	imul   $0x1f84,%eax,%eax
  4014de:	89 44 24 e8          	mov    %eax,-0x18(%rsp)
  4014e2:	8b 44 24 e8          	mov    -0x18(%rsp),%eax
  4014e6:	69 c0 36 ef 00 00    	imul   $0xef36,%eax,%eax
  4014ec:	89 44 24 e8          	mov    %eax,-0x18(%rsp)
  4014f0:	8b 44 24 f0          	mov    -0x10(%rsp),%eax
  4014f4:	69 c0 bd 0b 00 00    	imul   $0xbbd,%eax,%eax
  4014fa:	89 44 24 f0          	mov    %eax,-0x10(%rsp)
  4014fe:	8b 44 24 e0          	mov    -0x20(%rsp),%eax
  401502:	69 c0 01 78 00 00    	imul   $0x7801,%eax,%eax
  401508:	89 44 24 e0          	mov    %eax,-0x20(%rsp)
  40150c:	8b 44 24 f0          	mov    -0x10(%rsp),%eax
  401510:	69 c0 c1 da 00 00    	imul   $0xdac1,%eax,%eax
  401516:	89 44 24 f0          	mov    %eax,-0x10(%rsp)
  40151a:	8b 44 24 dc          	mov    -0x24(%rsp),%eax
  40151e:	69 c0 ac 8c 00 00    	imul   $0x8cac,%eax,%eax
  401524:	89 44 24 dc          	mov    %eax,-0x24(%rsp)
  401528:	8b 44 24 dc          	mov    -0x24(%rsp),%eax
  40152c:	69 c0 0a 9b 00 00    	imul   $0x9b0a,%eax,%eax
  401532:	89 44 24 dc          	mov    %eax,-0x24(%rsp)
  401536:	8b 44 24 e4          	mov    -0x1c(%rsp),%eax
  40153a:	69 c0 24 df 00 00    	imul   $0xdf24,%eax,%eax
  401540:	89 44 24 e4          	mov    %eax,-0x1c(%rsp)
  401544:	8b 44 24 f0          	mov    -0x10(%rsp),%eax
  401548:	69 c0 6e 2f 00 00    	imul   $0x2f6e,%eax,%eax
  40154e:	89 44 24 f0          	mov    %eax,-0x10(%rsp)
  401552:	8b 44 24 f0          	mov    -0x10(%rsp),%eax
  401556:	69 c0 4c cb 00 00    	imul   $0xcb4c,%eax,%eax
  40155c:	89 44 24 f0          	mov    %eax,-0x10(%rsp)
  401560:	8b 44 24 d8          	mov    -0x28(%rsp),%eax
  401564:	69 c0 1b a2 00 00    	imul   $0xa21b,%eax,%eax
  40156a:	89 44 24 d8          	mov    %eax,-0x28(%rsp)
  40156e:	8b 44 24 f0          	mov    -0x10(%rsp),%eax
  401572:	69 c0 46 d3 00 00    	imul   $0xd346,%eax,%eax
  401578:	89 44 24 f0          	mov    %eax,-0x10(%rsp)
  40157c:	8b 44 24 d4          	mov    -0x2c(%rsp),%eax
  401580:	69 c0 1f a1 00 00    	imul   $0xa11f,%eax,%eax
  401586:	89 44 24 d4          	mov    %eax,-0x2c(%rsp)
  40158a:	8b 44 24 dc          	mov    -0x24(%rsp),%eax
  40158e:	69 c0 62 d5 00 00    	imul   $0xd562,%eax,%eax
  401594:	89 44 24 dc          	mov    %eax,-0x24(%rsp)
  401598:	8b 44 24 f4          	mov    -0xc(%rsp),%eax
  40159c:	69 c0 82 07 00 00    	imul   $0x782,%eax,%eax
  4015a2:	89 44 24 f4          	mov    %eax,-0xc(%rsp)
  4015a6:	8b 44 24 d8          	mov    -0x28(%rsp),%eax
  4015aa:	69 c0 5c 88 00 00    	imul   $0x885c,%eax,%eax
  4015b0:	89 44 24 d8          	mov    %eax,-0x28(%rsp)
  4015b4:	8b 44 24 d8          	mov    -0x28(%rsp),%eax
  4015b8:	69 c0 5d b8 00 00    	imul   $0xb85d,%eax,%eax
  4015be:	89 44 24 d8          	mov    %eax,-0x28(%rsp)
  4015c2:	8b 44 24 f0          	mov    -0x10(%rsp),%eax
  4015c6:	69 c0 58 eb 00 00    	imul   $0xeb58,%eax,%eax
  4015cc:	89 44 24 f0          	mov    %eax,-0x10(%rsp)
  4015d0:	8b 44 24 d4          	mov    -0x2c(%rsp),%eax
  4015d4:	69 c0 66 d2 00 00    	imul   $0xd266,%eax,%eax
  4015da:	89 44 24 d4          	mov    %eax,-0x2c(%rsp)
  4015de:	8b 44 24 e4          	mov    -0x1c(%rsp),%eax
  4015e2:	69 c0 8b a9 00 00    	imul   $0xa98b,%eax,%eax
  4015e8:	89 44 24 e4          	mov    %eax,-0x1c(%rsp)
  4015ec:	8b 44 24 d4          	mov    -0x2c(%rsp),%eax
  4015f0:	69 c0 5f 4f 00 00    	imul   $0x4f5f,%eax,%eax
  4015f6:	89 44 24 d4          	mov    %eax,-0x2c(%rsp)
  4015fa:	8b 44 24 ec          	mov    -0x14(%rsp),%eax
  4015fe:	69 c0 ae 51 00 00    	imul   $0x51ae,%eax,%eax
  401604:	89 44 24 ec          	mov    %eax,-0x14(%rsp)
  401608:	8b 44 24 d0          	mov    -0x30(%rsp),%eax
  40160c:	69 c0 3f 90 00 00    	imul   $0x903f,%eax,%eax
  401612:	89 44 24 d0          	mov    %eax,-0x30(%rsp)
  401616:	8b 44 24 d4          	mov    -0x2c(%rsp),%eax
  40161a:	6b c0 55             	imul   $0x55,%eax,%eax
  40161d:	89 44 24 d4          	mov    %eax,-0x2c(%rsp)
  401621:	8b 44 24 d4          	mov    -0x2c(%rsp),%eax
  401625:	69 c0 3d 06 00 00    	imul   $0x63d,%eax,%eax
  40162b:	89 44 24 d4          	mov    %eax,-0x2c(%rsp)
  40162f:	8b 44 24 d8          	mov    -0x28(%rsp),%eax
  401633:	69 c0 67 7a 00 00    	imul   $0x7a67,%eax,%eax
  401639:	89 44 24 d8          	mov    %eax,-0x28(%rsp)
  40163d:	8b 44 24 dc          	mov    -0x24(%rsp),%eax
  401641:	69 c0 5e 1d 00 00    	imul   $0x1d5e,%eax,%eax
  401647:	89 44 24 dc          	mov    %eax,-0x24(%rsp)
  40164b:	8b 44 24 f4          	mov    -0xc(%rsp),%eax
  40164f:	69 c0 54 b8 00 00    	imul   $0xb854,%eax,%eax
  401655:	89 44 24 f4          	mov    %eax,-0xc(%rsp)
  401659:	8b 44 24 d8          	mov    -0x28(%rsp),%eax
  40165d:	69 c0 b6 21 00 00    	imul   $0x21b6,%eax,%eax
  401663:	89 44 24 d8          	mov    %eax,-0x28(%rsp)
  401667:	8b 44 24 f0          	mov    -0x10(%rsp),%eax
  40166b:	69 c0 3b a6 00 00    	imul   $0xa63b,%eax,%eax
  401671:	89 44 24 f0          	mov    %eax,-0x10(%rsp)
  401675:	8b 44 24 e4          	mov    -0x1c(%rsp),%eax
  401679:	69 c0 9b b7 00 00    	imul   $0xb79b,%eax,%eax
  40167f:	89 44 24 e4          	mov    %eax,-0x1c(%rsp)
  401683:	8b 44 24 f0          	mov    -0x10(%rsp),%eax
  401687:	69 c0 3e 50 00 00    	imul   $0x503e,%eax,%eax
  40168d:	89 44 24 f0          	mov    %eax,-0x10(%rsp)
  401691:	8b 44 24 d8          	mov    -0x28(%rsp),%eax
  401695:	69 c0 29 a6 00 00    	imul   $0xa629,%eax,%eax
  40169b:	89 44 24 d8          	mov    %eax,-0x28(%rsp)
  40169f:	8b 44 24 f4          	mov    -0xc(%rsp),%eax
  4016a3:	69 c0 13 34 00 00    	imul   $0x3413,%eax,%eax
  4016a9:	89 44 24 f4          	mov    %eax,-0xc(%rsp)
  4016ad:	8b 44 24 d8          	mov    -0x28(%rsp),%eax
  4016b1:	69 c0 ef 9e 00 00    	imul   $0x9eef,%eax,%eax
  4016b7:	89 44 24 d8          	mov    %eax,-0x28(%rsp)
  4016bb:	8b 44 24 e4          	mov    -0x1c(%rsp),%eax
  4016bf:	69 c0 b6 25 00 00    	imul   $0x25b6,%eax,%eax
  4016c5:	89 44 24 e4          	mov    %eax,-0x1c(%rsp)
  4016c9:	8b 44 24 e4          	mov    -0x1c(%rsp),%eax
  4016cd:	69 c0 d5 13 00 00    	imul   $0x13d5,%eax,%eax
  4016d3:	89 44 24 e4          	mov    %eax,-0x1c(%rsp)
  4016d7:	8b 44 24 d8          	mov    -0x28(%rsp),%eax
  4016db:	69 c0 b8 d8 00 00    	imul   $0xd8b8,%eax,%eax
  4016e1:	89 44 24 d8          	mov    %eax,-0x28(%rsp)
  4016e5:	8b 44 24 ec          	mov    -0x14(%rsp),%eax
  4016e9:	69 c0 37 a8 00 00    	imul   $0xa837,%eax,%eax
  4016ef:	89 44 24 ec          	mov    %eax,-0x14(%rsp)
  4016f3:	8b 44 24 f0          	mov    -0x10(%rsp),%eax
  4016f7:	69 c0 c1 63 00 00    	imul   $0x63c1,%eax,%eax
  4016fd:	89 44 24 f0          	mov    %eax,-0x10(%rsp)
  401701:	8b 44 24 e0          	mov    -0x20(%rsp),%eax
  401705:	69 c0 af a4 00 00    	imul   $0xa4af,%eax,%eax
  40170b:	89 44 24 e0          	mov    %eax,-0x20(%rsp)
  40170f:	8b 44 24 ec          	mov    -0x14(%rsp),%eax
  401713:	69 c0 cc 56 00 00    	imul   $0x56cc,%eax,%eax
  401719:	89 44 24 ec          	mov    %eax,-0x14(%rsp)
  40171d:	8b 44 24 d8          	mov    -0x28(%rsp),%eax
  401721:	69 c0 d5 2b 00 00    	imul   $0x2bd5,%eax,%eax
  401727:	89 44 24 d8          	mov    %eax,-0x28(%rsp)
  40172b:	8b 44 24 e0          	mov    -0x20(%rsp),%eax
  40172f:	69 c0 8a 80 00 00    	imul   $0x808a,%eax,%eax
  401735:	89 44 24 e0          	mov    %eax,-0x20(%rsp)
  401739:	8b 44 24 dc          	mov    -0x24(%rsp),%eax
  40173d:	69 c0 d7 9c 00 00    	imul   $0x9cd7,%eax,%eax
  401743:	89 44 24 dc          	mov    %eax,-0x24(%rsp)
  401747:	8b 44 24 f0          	mov    -0x10(%rsp),%eax
  40174b:	69 c0 c4 76 00 00    	imul   $0x76c4,%eax,%eax
  401751:	89 44 24 f0          	mov    %eax,-0x10(%rsp)
  401755:	8b 44 24 ec          	mov    -0x14(%rsp),%eax
  401759:	69 c0 5c 55 00 00    	imul   $0x555c,%eax,%eax
  40175f:	89 44 24 ec          	mov    %eax,-0x14(%rsp)
  401763:	8b 44 24 ec          	mov    -0x14(%rsp),%eax
  401767:	69 c0 6b c4 00 00    	imul   $0xc46b,%eax,%eax
  40176d:	89 44 24 ec          	mov    %eax,-0x14(%rsp)
  401771:	8b 44 24 e8          	mov    -0x18(%rsp),%eax
  401775:	69 c0 99 02 00 00    	imul   $0x299,%eax,%eax
  40177b:	89 44 24 e8          	mov    %eax,-0x18(%rsp)
  40177f:	8b 44 24 e4          	mov    -0x1c(%rsp),%eax
  401783:	69 c0 14 74 00 00    	imul   $0x7414,%eax,%eax
  401789:	89 44 24 e4          	mov    %eax,-0x1c(%rsp)
  40178d:	8b 44 24 dc          	mov    -0x24(%rsp),%eax
  401791:	69 c0 1c d6 00 00    	imul   $0xd61c,%eax,%eax
  401797:	89 44 24 dc          	mov    %eax,-0x24(%rsp)
  40179b:	8b 44 24 dc          	mov    -0x24(%rsp),%eax
  40179f:	69 c0 d8 8f 00 00    	imul   $0x8fd8,%eax,%eax
  4017a5:	89 44 24 dc          	mov    %eax,-0x24(%rsp)
  4017a9:	8b 44 24 e0          	mov    -0x20(%rsp),%eax
  4017ad:	69 c0 30 11 00 00    	imul   $0x1130,%eax,%eax
  4017b3:	89 44 24 e0          	mov    %eax,-0x20(%rsp)
  4017b7:	ba 00 00 00 00       	mov    $0x0,%edx
  4017bc:	b8 00 00 00 00       	mov    $0x0,%eax
  4017c1:	eb 0b                	jmp    4017ce <scramble+0x52b>
  4017c3:	89 d1                	mov    %edx,%ecx
  4017c5:	8b 4c 8c d0          	mov    -0x30(%rsp,%rcx,4),%ecx
  4017c9:	01 c8                	add    %ecx,%eax
  4017cb:	83 c2 01             	add    $0x1,%edx
  4017ce:	83 fa 09             	cmp    $0x9,%edx
  4017d1:	76 f0                	jbe    4017c3 <scramble+0x520>
  4017d3:	f3 c3                	repz retq 

00000000004017d5 <getbuf>:
  4017d5:	48 83 ec 38          	sub    $0x38,%rsp
  4017d9:	48 89 e7             	mov    %rsp,%rdi
  4017dc:	e8 59 03 00 00       	callq  401b3a <Gets>
  4017e1:	b8 01 00 00 00       	mov    $0x1,%eax
  4017e6:	48 83 c4 38          	add    $0x38,%rsp
  4017ea:	c3                   	retq   

00000000004017eb <touch1>:
  4017eb:	48 83 ec 08          	sub    $0x8,%rsp
  4017ef:	c7 05 03 3d 20 00 01 	movl   $0x1,0x203d03(%rip)        # 6054fc <vlevel>
  4017f6:	00 00 00 
  4017f9:	bf 2c 32 40 00       	mov    $0x40322c,%edi
  4017fe:	e8 4d f4 ff ff       	callq  400c50 <puts@plt>
  401803:	bf 01 00 00 00       	mov    $0x1,%edi
  401808:	e8 1c 05 00 00       	callq  401d29 <validate>
  40180d:	bf 00 00 00 00       	mov    $0x0,%edi
  401812:	e8 d9 f5 ff ff       	callq  400df0 <exit@plt>

0000000000401817 <touch2>:
  401817:	48 83 ec 08          	sub    $0x8,%rsp
  40181b:	89 fe                	mov    %edi,%esi
  40181d:	c7 05 d5 3c 20 00 02 	movl   $0x2,0x203cd5(%rip)        # 6054fc <vlevel>
  401824:	00 00 00 
  401827:	3b 3d d7 3c 20 00    	cmp    0x203cd7(%rip),%edi        # 605504 <cookie>
  40182d:	75 1b                	jne    40184a <touch2+0x33>
  40182f:	bf 50 32 40 00       	mov    $0x403250,%edi
  401834:	b8 00 00 00 00       	mov    $0x0,%eax
  401839:	e8 42 f4 ff ff       	callq  400c80 <printf@plt>
  40183e:	bf 02 00 00 00       	mov    $0x2,%edi
  401843:	e8 e1 04 00 00       	callq  401d29 <validate>
  401848:	eb 19                	jmp    401863 <touch2+0x4c>
  40184a:	bf 78 32 40 00       	mov    $0x403278,%edi
  40184f:	b8 00 00 00 00       	mov    $0x0,%eax
  401854:	e8 27 f4 ff ff       	callq  400c80 <printf@plt>
  401859:	bf 02 00 00 00       	mov    $0x2,%edi
  40185e:	e8 78 05 00 00       	callq  401ddb <fail>
  401863:	bf 00 00 00 00       	mov    $0x0,%edi
  401868:	e8 83 f5 ff ff       	callq  400df0 <exit@plt>

000000000040186d <hexmatch>:
  40186d:	41 54                	push   %r12
  40186f:	55                   	push   %rbp
  401870:	53                   	push   %rbx
  401871:	48 83 ec 70          	sub    $0x70,%rsp
  401875:	41 89 fc             	mov    %edi,%r12d
  401878:	48 89 f5             	mov    %rsi,%rbp
  40187b:	e8 d0 f4 ff ff       	callq  400d50 <random@plt>
  401880:	48 89 c1             	mov    %rax,%rcx
  401883:	48 ba 0b d7 a3 70 3d 	movabs $0xa3d70a3d70a3d70b,%rdx
  40188a:	0a d7 a3 
  40188d:	48 f7 ea             	imul   %rdx
  401890:	48 8d 04 0a          	lea    (%rdx,%rcx,1),%rax
  401894:	48 c1 f8 06          	sar    $0x6,%rax
  401898:	48 89 ce             	mov    %rcx,%rsi
  40189b:	48 c1 fe 3f          	sar    $0x3f,%rsi
  40189f:	48 29 f0             	sub    %rsi,%rax
  4018a2:	48 8d 04 80          	lea    (%rax,%rax,4),%rax
  4018a6:	48 8d 04 80          	lea    (%rax,%rax,4),%rax
  4018aa:	48 c1 e0 02          	shl    $0x2,%rax
  4018ae:	48 29 c1             	sub    %rax,%rcx
  4018b1:	48 8d 1c 0c          	lea    (%rsp,%rcx,1),%rbx
  4018b5:	44 89 e2             	mov    %r12d,%edx
  4018b8:	be 49 32 40 00       	mov    $0x403249,%esi
  4018bd:	48 89 df             	mov    %rbx,%rdi
  4018c0:	b8 00 00 00 00       	mov    $0x0,%eax
  4018c5:	e8 16 f5 ff ff       	callq  400de0 <sprintf@plt>
  4018ca:	ba 09 00 00 00       	mov    $0x9,%edx
  4018cf:	48 89 de             	mov    %rbx,%rsi
  4018d2:	48 89 ef             	mov    %rbp,%rdi
  4018d5:	e8 56 f3 ff ff       	callq  400c30 <strncmp@plt>
  4018da:	85 c0                	test   %eax,%eax
  4018dc:	0f 94 c0             	sete   %al
  4018df:	0f b6 c0             	movzbl %al,%eax
  4018e2:	48 83 c4 70          	add    $0x70,%rsp
  4018e6:	5b                   	pop    %rbx
  4018e7:	5d                   	pop    %rbp
  4018e8:	41 5c                	pop    %r12
  4018ea:	c3                   	retq   

00000000004018eb <touch3>:
  4018eb:	53                   	push   %rbx
  4018ec:	48 89 fb             	mov    %rdi,%rbx
  4018ef:	c7 05 03 3c 20 00 03 	movl   $0x3,0x203c03(%rip)        # 6054fc <vlevel>
  4018f6:	00 00 00 
  4018f9:	48 89 fe             	mov    %rdi,%rsi
  4018fc:	8b 3d 02 3c 20 00    	mov    0x203c02(%rip),%edi        # 605504 <cookie>
  401902:	e8 66 ff ff ff       	callq  40186d <hexmatch>
  401907:	85 c0                	test   %eax,%eax
  401909:	74 1e                	je     401929 <touch3+0x3e>
  40190b:	48 89 de             	mov    %rbx,%rsi
  40190e:	bf a0 32 40 00       	mov    $0x4032a0,%edi
  401913:	b8 00 00 00 00       	mov    $0x0,%eax
  401918:	e8 63 f3 ff ff       	callq  400c80 <printf@plt>
  40191d:	bf 03 00 00 00       	mov    $0x3,%edi
  401922:	e8 02 04 00 00       	callq  401d29 <validate>
  401927:	eb 1c                	jmp    401945 <touch3+0x5a>
  401929:	48 89 de             	mov    %rbx,%rsi
  40192c:	bf c8 32 40 00       	mov    $0x4032c8,%edi
  401931:	b8 00 00 00 00       	mov    $0x0,%eax
  401936:	e8 45 f3 ff ff       	callq  400c80 <printf@plt>
  40193b:	bf 03 00 00 00       	mov    $0x3,%edi
  401940:	e8 96 04 00 00       	callq  401ddb <fail>
  401945:	bf 00 00 00 00       	mov    $0x0,%edi
  40194a:	e8 a1 f4 ff ff       	callq  400df0 <exit@plt>

000000000040194f <test>:
  40194f:	48 83 ec 08          	sub    $0x8,%rsp
  401953:	b8 00 00 00 00       	mov    $0x0,%eax
  401958:	e8 78 fe ff ff       	callq  4017d5 <getbuf>
  40195d:	89 c6                	mov    %eax,%esi
  40195f:	bf f0 32 40 00       	mov    $0x4032f0,%edi
  401964:	b8 00 00 00 00       	mov    $0x0,%eax
  401969:	e8 12 f3 ff ff       	callq  400c80 <printf@plt>
  40196e:	48 83 c4 08          	add    $0x8,%rsp
  401972:	c3                   	retq   

0000000000401973 <start_farm>:
  401973:	b8 01 00 00 00       	mov    $0x1,%eax
  401978:	c3                   	retq   

0000000000401979 <setval_156>:
  401979:	c7 07 78 90 c3 6a    	movl   $0x6ac39078,(%rdi)
  40197f:	c3                   	retq   

0000000000401980 <addval_299>:
  401980:	8d 87 48 89 c7 c3    	lea    -0x3c3876b8(%rdi),%eax
  401986:	c3                   	retq   

0000000000401987 <addval_438>:
  401987:	8d 87 4d bb 58 91    	lea    -0x6ea744b3(%rdi),%eax
  40198d:	c3                   	retq   

000000000040198e <addval_461>:
  40198e:	8d 87 58 90 90 c3    	lea    -0x3c6f6fa8(%rdi),%eax
  401994:	c3                   	retq   

0000000000401995 <addval_443>:
  401995:	8d 87 48 89 c7 c7    	lea    -0x383876b8(%rdi),%eax
  40199b:	c3                   	retq   

000000000040199c <addval_267>:
  40199c:	8d 87 58 90 90 90    	lea    -0x6f6f6fa8(%rdi),%eax
  4019a2:	c3                   	retq   

00000000004019a3 <addval_407>:
  4019a3:	8d 87 7c 48 89 c7    	lea    -0x3876b784(%rdi),%eax
  4019a9:	c3                   	retq   

00000000004019aa <setval_414>:
  4019aa:	c7 07 48 81 c7 c3    	movl   $0xc3c78148,(%rdi)
  4019b0:	c3                   	retq   

00000000004019b1 <mid_farm>:
  4019b1:	b8 01 00 00 00       	mov    $0x1,%eax
  4019b6:	c3                   	retq   

00000000004019b7 <add_xy>:
  4019b7:	48 8d 04 37          	lea    (%rdi,%rsi,1),%rax
  4019bb:	c3                   	retq   

00000000004019bc <getval_123>:
  4019bc:	b8 08 89 e0 c3       	mov    $0xc3e08908,%eax
  4019c1:	c3                   	retq   

00000000004019c2 <setval_351>:
  4019c2:	c7 07 89 d6 18 db    	movl   $0xdb18d689,(%rdi)
  4019c8:	c3                   	retq   

00000000004019c9 <addval_380>:
  4019c9:	8d 87 48 89 e0 91    	lea    -0x6e1f76b8(%rdi),%eax
  4019cf:	c3                   	retq   

00000000004019d0 <setval_480>:
  4019d0:	c7 07 09 d6 08 c0    	movl   $0xc008d609,(%rdi)
  4019d6:	c3                   	retq   

00000000004019d7 <getval_497>:
  4019d7:	b8 81 ca 84 c0       	mov    $0xc084ca81,%eax
  4019dc:	c3                   	retq   

00000000004019dd <getval_307>:
  4019dd:	b8 88 d6 90 c3       	mov    $0xc390d688,%eax
  4019e2:	c3                   	retq   

00000000004019e3 <setval_278>:
  4019e3:	c7 07 8d ca 08 c0    	movl   $0xc008ca8d,(%rdi)
  4019e9:	c3                   	retq   

00000000004019ea <getval_328>:
  4019ea:	b8 48 89 e0 94       	mov    $0x94e08948,%eax
  4019ef:	c3                   	retq   

00000000004019f0 <addval_273>:
  4019f0:	8d 87 e9 89 c1 92    	lea    -0x6d3e7617(%rdi),%eax
  4019f6:	c3                   	retq   

00000000004019f7 <getval_257>:
  4019f7:	b8 48 89 e0 94       	mov    $0x94e08948,%eax
  4019fc:	c3                   	retq   

00000000004019fd <addval_125>:
  4019fd:	8d 87 89 c1 28 c0    	lea    -0x3fd73e77(%rdi),%eax
  401a03:	c3                   	retq   

0000000000401a04 <addval_362>:
  401a04:	8d 87 89 ca 20 c9    	lea    -0x36df3577(%rdi),%eax
  401a0a:	c3                   	retq   

0000000000401a0b <addval_146>:
  401a0b:	8d 87 89 d6 84 c0    	lea    -0x3f7b2977(%rdi),%eax
  401a11:	c3                   	retq   

0000000000401a12 <setval_473>:
  401a12:	c7 07 89 d6 c4 db    	movl   $0xdbc4d689,(%rdi)
  401a18:	c3                   	retq   

0000000000401a19 <addval_227>:
  401a19:	8d 87 8b ca 20 db    	lea    -0x24df3575(%rdi),%eax
  401a1f:	c3                   	retq   

0000000000401a20 <getval_452>:
  401a20:	b8 09 d6 84 c0       	mov    $0xc084d609,%eax
  401a25:	c3                   	retq   

0000000000401a26 <setval_343>:
  401a26:	c7 07 48 89 e0 92    	movl   $0x92e08948,(%rdi)
  401a2c:	c3                   	retq   

0000000000401a2d <getval_492>:
  401a2d:	b8 48 89 e0 c3       	mov    $0xc3e08948,%eax
  401a32:	c3                   	retq   

0000000000401a33 <setval_472>:
  401a33:	c7 07 89 c1 38 d2    	movl   $0xd238c189,(%rdi)
  401a39:	c3                   	retq   

0000000000401a3a <addval_471>:
  401a3a:	8d 87 89 c1 94 db    	lea    -0x246b3e77(%rdi),%eax
  401a40:	c3                   	retq   

0000000000401a41 <addval_249>:
  401a41:	8d 87 89 c1 60 d2    	lea    -0x2d9f3e77(%rdi),%eax
  401a47:	c3                   	retq   

0000000000401a48 <getval_223>:
  401a48:	b8 89 c1 91 90       	mov    $0x9091c189,%eax
  401a4d:	c3                   	retq   

0000000000401a4e <getval_204>:
  401a4e:	b8 89 c1 90 c2       	mov    $0xc290c189,%eax
  401a53:	c3                   	retq   

0000000000401a54 <getval_266>:
  401a54:	b8 89 ca 20 c0       	mov    $0xc020ca89,%eax
  401a59:	c3                   	retq   

0000000000401a5a <getval_417>:
  401a5a:	b8 89 d6 c3 1a       	mov    $0x1ac3d689,%eax
  401a5f:	c3                   	retq   

0000000000401a60 <getval_478>:
  401a60:	b8 99 d6 08 d2       	mov    $0xd208d699,%eax
  401a65:	c3                   	retq   

0000000000401a66 <addval_105>:
  401a66:	8d 87 89 ca 28 c9    	lea    -0x36d73577(%rdi),%eax
  401a6c:	c3                   	retq   

0000000000401a6d <addval_141>:
  401a6d:	8d 87 89 ca 92 c3    	lea    -0x3c6d3577(%rdi),%eax
  401a73:	c3                   	retq   

0000000000401a74 <addval_142>:
  401a74:	8d 87 48 89 e0 c3    	lea    -0x3c1f76b8(%rdi),%eax
  401a7a:	c3                   	retq   

0000000000401a7b <setval_162>:
  401a7b:	c7 07 89 c1 20 db    	movl   $0xdb20c189,(%rdi)
  401a81:	c3                   	retq   

0000000000401a82 <setval_444>:
  401a82:	c7 07 a9 ca 20 db    	movl   $0xdb20caa9,(%rdi)
  401a88:	c3                   	retq   

0000000000401a89 <addval_326>:
  401a89:	8d 87 48 89 e0 c2    	lea    -0x3d1f76b8(%rdi),%eax
  401a8f:	c3                   	retq   

0000000000401a90 <end_farm>:
  401a90:	b8 01 00 00 00       	mov    $0x1,%eax
  401a95:	c3                   	retq   
  401a96:	66 2e 0f 1f 84 00 00 	nopw   %cs:0x0(%rax,%rax,1)
  401a9d:	00 00 00 

0000000000401aa0 <save_char>:
  401aa0:	8b 05 7e 46 20 00    	mov    0x20467e(%rip),%eax        # 606124 <gets_cnt>
  401aa6:	3d ff 03 00 00       	cmp    $0x3ff,%eax
  401aab:	7f 49                	jg     401af6 <save_char+0x56>
  401aad:	8d 14 40             	lea    (%rax,%rax,2),%edx
  401ab0:	89 f9                	mov    %edi,%ecx
  401ab2:	c0 e9 04             	shr    $0x4,%cl
  401ab5:	83 e1 0f             	and    $0xf,%ecx
  401ab8:	0f b6 b1 10 36 40 00 	movzbl 0x403610(%rcx),%esi
  401abf:	48 63 ca             	movslq %edx,%rcx
  401ac2:	40 88 b1 20 55 60 00 	mov    %sil,0x605520(%rcx)
  401ac9:	8d 4a 01             	lea    0x1(%rdx),%ecx
  401acc:	83 e7 0f             	and    $0xf,%edi
  401acf:	0f b6 b7 10 36 40 00 	movzbl 0x403610(%rdi),%esi
  401ad6:	48 63 c9             	movslq %ecx,%rcx
  401ad9:	40 88 b1 20 55 60 00 	mov    %sil,0x605520(%rcx)
  401ae0:	83 c2 02             	add    $0x2,%edx
  401ae3:	48 63 d2             	movslq %edx,%rdx
  401ae6:	c6 82 20 55 60 00 20 	movb   $0x20,0x605520(%rdx)
  401aed:	83 c0 01             	add    $0x1,%eax
  401af0:	89 05 2e 46 20 00    	mov    %eax,0x20462e(%rip)        # 606124 <gets_cnt>
  401af6:	f3 c3                	repz retq 

0000000000401af8 <save_term>:
  401af8:	8b 05 26 46 20 00    	mov    0x204626(%rip),%eax        # 606124 <gets_cnt>
  401afe:	8d 04 40             	lea    (%rax,%rax,2),%eax
  401b01:	48 98                	cltq   
  401b03:	c6 80 20 55 60 00 00 	movb   $0x0,0x605520(%rax)
  401b0a:	c3                   	retq   

0000000000401b0b <check_fail>:
  401b0b:	48 83 ec 08          	sub    $0x8,%rsp
  401b0f:	0f be 35 12 46 20 00 	movsbl 0x204612(%rip),%esi        # 606128 <target_prefix>
  401b16:	b9 20 55 60 00       	mov    $0x605520,%ecx
  401b1b:	8b 15 d7 39 20 00    	mov    0x2039d7(%rip),%edx        # 6054f8 <check_level>
  401b21:	bf 13 33 40 00       	mov    $0x403313,%edi
  401b26:	b8 00 00 00 00       	mov    $0x0,%eax
  401b2b:	e8 50 f1 ff ff       	callq  400c80 <printf@plt>
  401b30:	bf 01 00 00 00       	mov    $0x1,%edi
  401b35:	e8 b6 f2 ff ff       	callq  400df0 <exit@plt>

0000000000401b3a <Gets>:
  401b3a:	41 54                	push   %r12
  401b3c:	55                   	push   %rbp
  401b3d:	53                   	push   %rbx
  401b3e:	49 89 fc             	mov    %rdi,%r12
  401b41:	c7 05 d9 45 20 00 00 	movl   $0x0,0x2045d9(%rip)        # 606124 <gets_cnt>
  401b48:	00 00 00 
  401b4b:	48 89 fb             	mov    %rdi,%rbx
  401b4e:	eb 11                	jmp    401b61 <Gets+0x27>
  401b50:	48 8d 6b 01          	lea    0x1(%rbx),%rbp
  401b54:	88 03                	mov    %al,(%rbx)
  401b56:	0f b6 f8             	movzbl %al,%edi
  401b59:	e8 42 ff ff ff       	callq  401aa0 <save_char>
  401b5e:	48 89 eb             	mov    %rbp,%rbx
  401b61:	48 8b 3d 88 39 20 00 	mov    0x203988(%rip),%rdi        # 6054f0 <infile>
  401b68:	e8 f3 f1 ff ff       	callq  400d60 <_IO_getc@plt>
  401b6d:	83 f8 ff             	cmp    $0xffffffff,%eax
  401b70:	74 05                	je     401b77 <Gets+0x3d>
  401b72:	83 f8 0a             	cmp    $0xa,%eax
  401b75:	75 d9                	jne    401b50 <Gets+0x16>
  401b77:	c6 03 00             	movb   $0x0,(%rbx)
  401b7a:	b8 00 00 00 00       	mov    $0x0,%eax
  401b7f:	e8 74 ff ff ff       	callq  401af8 <save_term>
  401b84:	4c 89 e0             	mov    %r12,%rax
  401b87:	5b                   	pop    %rbx
  401b88:	5d                   	pop    %rbp
  401b89:	41 5c                	pop    %r12
  401b8b:	c3                   	retq   

0000000000401b8c <notify_server>:
  401b8c:	83 3d 75 39 20 00 00 	cmpl   $0x0,0x203975(%rip)        # 605508 <is_checker>
  401b93:	0f 85 8e 01 00 00    	jne    401d27 <notify_server+0x19b>
  401b99:	53                   	push   %rbx
  401b9a:	48 81 ec 10 40 00 00 	sub    $0x4010,%rsp
  401ba1:	89 fb                	mov    %edi,%ebx
  401ba3:	8b 05 7b 45 20 00    	mov    0x20457b(%rip),%eax        # 606124 <gets_cnt>
  401ba9:	83 c0 64             	add    $0x64,%eax
  401bac:	3d 00 20 00 00       	cmp    $0x2000,%eax
  401bb1:	7e 19                	jle    401bcc <notify_server+0x40>
  401bb3:	bf 48 34 40 00       	mov    $0x403448,%edi
  401bb8:	b8 00 00 00 00       	mov    $0x0,%eax
  401bbd:	e8 be f0 ff ff       	callq  400c80 <printf@plt>
  401bc2:	bf 01 00 00 00       	mov    $0x1,%edi
  401bc7:	e8 24 f2 ff ff       	callq  400df0 <exit@plt>
  401bcc:	44 0f be 0d 54 45 20 	movsbl 0x204554(%rip),%r9d        # 606128 <target_prefix>
  401bd3:	00 
  401bd4:	83 3d cd 38 20 00 00 	cmpl   $0x0,0x2038cd(%rip)        # 6054a8 <notify>
  401bdb:	74 09                	je     401be6 <notify_server+0x5a>
  401bdd:	44 8b 05 1c 39 20 00 	mov    0x20391c(%rip),%r8d        # 605500 <authkey>
  401be4:	eb 06                	jmp    401bec <notify_server+0x60>
  401be6:	41 b8 ff ff ff ff    	mov    $0xffffffff,%r8d
  401bec:	85 db                	test   %ebx,%ebx
  401bee:	74 07                	je     401bf7 <notify_server+0x6b>
  401bf0:	b9 29 33 40 00       	mov    $0x403329,%ecx
  401bf5:	eb 05                	jmp    401bfc <notify_server+0x70>
  401bf7:	b9 2e 33 40 00       	mov    $0x40332e,%ecx
  401bfc:	48 c7 44 24 08 20 55 	movq   $0x605520,0x8(%rsp)
  401c03:	60 00 
  401c05:	89 34 24             	mov    %esi,(%rsp)
  401c08:	8b 15 5a 35 20 00    	mov    0x20355a(%rip),%edx        # 605168 <target_id>
  401c0e:	be 33 33 40 00       	mov    $0x403333,%esi
  401c13:	48 8d bc 24 10 20 00 	lea    0x2010(%rsp),%rdi
  401c1a:	00 
  401c1b:	b8 00 00 00 00       	mov    $0x0,%eax
  401c20:	e8 bb f1 ff ff       	callq  400de0 <sprintf@plt>
  401c25:	83 3d 7c 38 20 00 00 	cmpl   $0x0,0x20387c(%rip)        # 6054a8 <notify>
  401c2c:	74 78                	je     401ca6 <notify_server+0x11a>
  401c2e:	85 db                	test   %ebx,%ebx
  401c30:	74 68                	je     401c9a <notify_server+0x10e>
  401c32:	4c 8d 4c 24 10       	lea    0x10(%rsp),%r9
  401c37:	41 b8 00 00 00 00    	mov    $0x0,%r8d
  401c3d:	48 8d 8c 24 10 20 00 	lea    0x2010(%rsp),%rcx
  401c44:	00 
  401c45:	48 8b 15 24 35 20 00 	mov    0x203524(%rip),%rdx        # 605170 <lab>
  401c4c:	48 8b 35 25 35 20 00 	mov    0x203525(%rip),%rsi        # 605178 <course>
  401c53:	48 8b 3d 06 35 20 00 	mov    0x203506(%rip),%rdi        # 605160 <user_id>
  401c5a:	e8 94 0f 00 00       	callq  402bf3 <driver_post>
  401c5f:	85 c0                	test   %eax,%eax
  401c61:	79 1e                	jns    401c81 <notify_server+0xf5>
  401c63:	48 8d 74 24 10       	lea    0x10(%rsp),%rsi
  401c68:	bf 4f 33 40 00       	mov    $0x40334f,%edi
  401c6d:	b8 00 00 00 00       	mov    $0x0,%eax
  401c72:	e8 09 f0 ff ff       	callq  400c80 <printf@plt>
  401c77:	bf 01 00 00 00       	mov    $0x1,%edi
  401c7c:	e8 6f f1 ff ff       	callq  400df0 <exit@plt>
  401c81:	bf 78 34 40 00       	mov    $0x403478,%edi
  401c86:	e8 c5 ef ff ff       	callq  400c50 <puts@plt>
  401c8b:	bf 5b 33 40 00       	mov    $0x40335b,%edi
  401c90:	e8 bb ef ff ff       	callq  400c50 <puts@plt>
  401c95:	e9 85 00 00 00       	jmpq   401d1f <notify_server+0x193>
  401c9a:	bf 65 33 40 00       	mov    $0x403365,%edi
  401c9f:	e8 ac ef ff ff       	callq  400c50 <puts@plt>
  401ca4:	eb 79                	jmp    401d1f <notify_server+0x193>
  401ca6:	85 db                	test   %ebx,%ebx
  401ca8:	74 08                	je     401cb2 <notify_server+0x126>
  401caa:	be 29 33 40 00       	mov    $0x403329,%esi
  401caf:	90                   	nop
  401cb0:	eb 05                	jmp    401cb7 <notify_server+0x12b>
  401cb2:	be 2e 33 40 00       	mov    $0x40332e,%esi
  401cb7:	bf b0 34 40 00       	mov    $0x4034b0,%edi
  401cbc:	b8 00 00 00 00       	mov    $0x0,%eax
  401cc1:	e8 ba ef ff ff       	callq  400c80 <printf@plt>
  401cc6:	48 8b 35 93 34 20 00 	mov    0x203493(%rip),%rsi        # 605160 <user_id>
  401ccd:	bf 6c 33 40 00       	mov    $0x40336c,%edi
  401cd2:	b8 00 00 00 00       	mov    $0x0,%eax
  401cd7:	e8 a4 ef ff ff       	callq  400c80 <printf@plt>
  401cdc:	48 8b 35 95 34 20 00 	mov    0x203495(%rip),%rsi        # 605178 <course>
  401ce3:	bf 79 33 40 00       	mov    $0x403379,%edi
  401ce8:	b8 00 00 00 00       	mov    $0x0,%eax
  401ced:	e8 8e ef ff ff       	callq  400c80 <printf@plt>
  401cf2:	48 8b 35 77 34 20 00 	mov    0x203477(%rip),%rsi        # 605170 <lab>
  401cf9:	bf 85 33 40 00       	mov    $0x403385,%edi
  401cfe:	b8 00 00 00 00       	mov    $0x0,%eax
  401d03:	e8 78 ef ff ff       	callq  400c80 <printf@plt>
  401d08:	48 8d b4 24 10 20 00 	lea    0x2010(%rsp),%rsi
  401d0f:	00 
  401d10:	bf 8e 33 40 00       	mov    $0x40338e,%edi
  401d15:	b8 00 00 00 00       	mov    $0x0,%eax
  401d1a:	e8 61 ef ff ff       	callq  400c80 <printf@plt>
  401d1f:	48 81 c4 10 40 00 00 	add    $0x4010,%rsp
  401d26:	5b                   	pop    %rbx
  401d27:	f3 c3                	repz retq 

0000000000401d29 <validate>:
  401d29:	53                   	push   %rbx
  401d2a:	89 fb                	mov    %edi,%ebx
  401d2c:	83 3d d5 37 20 00 00 	cmpl   $0x0,0x2037d5(%rip)        # 605508 <is_checker>
  401d33:	74 60                	je     401d95 <validate+0x6c>
  401d35:	39 3d c1 37 20 00    	cmp    %edi,0x2037c1(%rip)        # 6054fc <vlevel>
  401d3b:	74 14                	je     401d51 <validate+0x28>
  401d3d:	bf 9a 33 40 00       	mov    $0x40339a,%edi
  401d42:	e8 09 ef ff ff       	callq  400c50 <puts@plt>
  401d47:	b8 00 00 00 00       	mov    $0x0,%eax
  401d4c:	e8 ba fd ff ff       	callq  401b0b <check_fail>
  401d51:	8b 35 a1 37 20 00    	mov    0x2037a1(%rip),%esi        # 6054f8 <check_level>
  401d57:	39 fe                	cmp    %edi,%esi
  401d59:	74 1b                	je     401d76 <validate+0x4d>
  401d5b:	89 fa                	mov    %edi,%edx
  401d5d:	bf d8 34 40 00       	mov    $0x4034d8,%edi
  401d62:	b8 00 00 00 00       	mov    $0x0,%eax
  401d67:	e8 14 ef ff ff       	callq  400c80 <printf@plt>
  401d6c:	b8 00 00 00 00       	mov    $0x0,%eax
  401d71:	e8 95 fd ff ff       	callq  401b0b <check_fail>
  401d76:	0f be 35 ab 43 20 00 	movsbl 0x2043ab(%rip),%esi        # 606128 <target_prefix>
  401d7d:	b9 20 55 60 00       	mov    $0x605520,%ecx
  401d82:	89 fa                	mov    %edi,%edx
  401d84:	bf b8 33 40 00       	mov    $0x4033b8,%edi
  401d89:	b8 00 00 00 00       	mov    $0x0,%eax
  401d8e:	e8 ed ee ff ff       	callq  400c80 <printf@plt>
  401d93:	eb 44                	jmp    401dd9 <validate+0xb0>
  401d95:	39 3d 61 37 20 00    	cmp    %edi,0x203761(%rip)        # 6054fc <vlevel>
  401d9b:	74 18                	je     401db5 <validate+0x8c>
  401d9d:	bf 9a 33 40 00       	mov    $0x40339a,%edi
  401da2:	e8 a9 ee ff ff       	callq  400c50 <puts@plt>
  401da7:	89 de                	mov    %ebx,%esi
  401da9:	bf 00 00 00 00       	mov    $0x0,%edi
  401dae:	e8 d9 fd ff ff       	callq  401b8c <notify_server>
  401db3:	eb 24                	jmp    401dd9 <validate+0xb0>
  401db5:	0f be 15 6c 43 20 00 	movsbl 0x20436c(%rip),%edx        # 606128 <target_prefix>
  401dbc:	89 fe                	mov    %edi,%esi
  401dbe:	bf 00 35 40 00       	mov    $0x403500,%edi
  401dc3:	b8 00 00 00 00       	mov    $0x0,%eax
  401dc8:	e8 b3 ee ff ff       	callq  400c80 <printf@plt>
  401dcd:	89 de                	mov    %ebx,%esi
  401dcf:	bf 01 00 00 00       	mov    $0x1,%edi
  401dd4:	e8 b3 fd ff ff       	callq  401b8c <notify_server>
  401dd9:	5b                   	pop    %rbx
  401dda:	c3                   	retq   

0000000000401ddb <fail>:
  401ddb:	48 83 ec 08          	sub    $0x8,%rsp
  401ddf:	83 3d 22 37 20 00 00 	cmpl   $0x0,0x203722(%rip)        # 605508 <is_checker>
  401de6:	74 0a                	je     401df2 <fail+0x17>
  401de8:	b8 00 00 00 00       	mov    $0x0,%eax
  401ded:	e8 19 fd ff ff       	callq  401b0b <check_fail>
  401df2:	89 fe                	mov    %edi,%esi
  401df4:	bf 00 00 00 00       	mov    $0x0,%edi
  401df9:	e8 8e fd ff ff       	callq  401b8c <notify_server>
  401dfe:	48 83 c4 08          	add    $0x8,%rsp
  401e02:	c3                   	retq   

0000000000401e03 <bushandler>:
  401e03:	48 83 ec 08          	sub    $0x8,%rsp
  401e07:	83 3d fa 36 20 00 00 	cmpl   $0x0,0x2036fa(%rip)        # 605508 <is_checker>
  401e0e:	74 14                	je     401e24 <bushandler+0x21>
  401e10:	bf cd 33 40 00       	mov    $0x4033cd,%edi
  401e15:	e8 36 ee ff ff       	callq  400c50 <puts@plt>
  401e1a:	b8 00 00 00 00       	mov    $0x0,%eax
  401e1f:	e8 e7 fc ff ff       	callq  401b0b <check_fail>
  401e24:	bf 38 35 40 00       	mov    $0x403538,%edi
  401e29:	e8 22 ee ff ff       	callq  400c50 <puts@plt>
  401e2e:	bf d7 33 40 00       	mov    $0x4033d7,%edi
  401e33:	e8 18 ee ff ff       	callq  400c50 <puts@plt>
  401e38:	be 00 00 00 00       	mov    $0x0,%esi
  401e3d:	bf 00 00 00 00       	mov    $0x0,%edi
  401e42:	e8 45 fd ff ff       	callq  401b8c <notify_server>
  401e47:	bf 01 00 00 00       	mov    $0x1,%edi
  401e4c:	e8 9f ef ff ff       	callq  400df0 <exit@plt>

0000000000401e51 <seghandler>:
  401e51:	48 83 ec 08          	sub    $0x8,%rsp
  401e55:	83 3d ac 36 20 00 00 	cmpl   $0x0,0x2036ac(%rip)        # 605508 <is_checker>
  401e5c:	74 14                	je     401e72 <seghandler+0x21>
  401e5e:	bf ed 33 40 00       	mov    $0x4033ed,%edi
  401e63:	e8 e8 ed ff ff       	callq  400c50 <puts@plt>
  401e68:	b8 00 00 00 00       	mov    $0x0,%eax
  401e6d:	e8 99 fc ff ff       	callq  401b0b <check_fail>
  401e72:	bf 58 35 40 00       	mov    $0x403558,%edi
  401e77:	e8 d4 ed ff ff       	callq  400c50 <puts@plt>
  401e7c:	bf d7 33 40 00       	mov    $0x4033d7,%edi
  401e81:	e8 ca ed ff ff       	callq  400c50 <puts@plt>
  401e86:	be 00 00 00 00       	mov    $0x0,%esi
  401e8b:	bf 00 00 00 00       	mov    $0x0,%edi
  401e90:	e8 f7 fc ff ff       	callq  401b8c <notify_server>
  401e95:	bf 01 00 00 00       	mov    $0x1,%edi
  401e9a:	e8 51 ef ff ff       	callq  400df0 <exit@plt>

0000000000401e9f <illegalhandler>:
  401e9f:	48 83 ec 08          	sub    $0x8,%rsp
  401ea3:	83 3d 5e 36 20 00 00 	cmpl   $0x0,0x20365e(%rip)        # 605508 <is_checker>
  401eaa:	74 14                	je     401ec0 <illegalhandler+0x21>
  401eac:	bf 00 34 40 00       	mov    $0x403400,%edi
  401eb1:	e8 9a ed ff ff       	callq  400c50 <puts@plt>
  401eb6:	b8 00 00 00 00       	mov    $0x0,%eax
  401ebb:	e8 4b fc ff ff       	callq  401b0b <check_fail>
  401ec0:	bf 80 35 40 00       	mov    $0x403580,%edi
  401ec5:	e8 86 ed ff ff       	callq  400c50 <puts@plt>
  401eca:	bf d7 33 40 00       	mov    $0x4033d7,%edi
  401ecf:	e8 7c ed ff ff       	callq  400c50 <puts@plt>
  401ed4:	be 00 00 00 00       	mov    $0x0,%esi
  401ed9:	bf 00 00 00 00       	mov    $0x0,%edi
  401ede:	e8 a9 fc ff ff       	callq  401b8c <notify_server>
  401ee3:	bf 01 00 00 00       	mov    $0x1,%edi
  401ee8:	e8 03 ef ff ff       	callq  400df0 <exit@plt>

0000000000401eed <sigalrmhandler>:
  401eed:	48 83 ec 08          	sub    $0x8,%rsp
  401ef1:	83 3d 10 36 20 00 00 	cmpl   $0x0,0x203610(%rip)        # 605508 <is_checker>
  401ef8:	74 14                	je     401f0e <sigalrmhandler+0x21>
  401efa:	bf 14 34 40 00       	mov    $0x403414,%edi
  401eff:	e8 4c ed ff ff       	callq  400c50 <puts@plt>
  401f04:	b8 00 00 00 00       	mov    $0x0,%eax
  401f09:	e8 fd fb ff ff       	callq  401b0b <check_fail>
  401f0e:	be 05 00 00 00       	mov    $0x5,%esi
  401f13:	bf b0 35 40 00       	mov    $0x4035b0,%edi
  401f18:	b8 00 00 00 00       	mov    $0x0,%eax
  401f1d:	e8 5e ed ff ff       	callq  400c80 <printf@plt>
  401f22:	be 00 00 00 00       	mov    $0x0,%esi
  401f27:	bf 00 00 00 00       	mov    $0x0,%edi
  401f2c:	e8 5b fc ff ff       	callq  401b8c <notify_server>
  401f31:	bf 01 00 00 00       	mov    $0x1,%edi
  401f36:	e8 b5 ee ff ff       	callq  400df0 <exit@plt>

0000000000401f3b <launch>:
  401f3b:	55                   	push   %rbp
  401f3c:	48 89 e5             	mov    %rsp,%rbp
  401f3f:	48 89 fa             	mov    %rdi,%rdx
  401f42:	48 8d 47 1e          	lea    0x1e(%rdi),%rax
  401f46:	48 83 e0 f0          	and    $0xfffffffffffffff0,%rax
  401f4a:	48 29 c4             	sub    %rax,%rsp
  401f4d:	48 8d 7c 24 0f       	lea    0xf(%rsp),%rdi
  401f52:	48 83 e7 f0          	and    $0xfffffffffffffff0,%rdi
  401f56:	be f4 00 00 00       	mov    $0xf4,%esi
  401f5b:	e8 30 ed ff ff       	callq  400c90 <memset@plt>
  401f60:	48 8b 05 59 35 20 00 	mov    0x203559(%rip),%rax        # 6054c0 <stdin@@GLIBC_2.2.5>
  401f67:	48 39 05 82 35 20 00 	cmp    %rax,0x203582(%rip)        # 6054f0 <infile>
  401f6e:	75 0f                	jne    401f7f <launch+0x44>
  401f70:	bf 1c 34 40 00       	mov    $0x40341c,%edi
  401f75:	b8 00 00 00 00       	mov    $0x0,%eax
  401f7a:	e8 01 ed ff ff       	callq  400c80 <printf@plt>
  401f7f:	c7 05 73 35 20 00 00 	movl   $0x0,0x203573(%rip)        # 6054fc <vlevel>
  401f86:	00 00 00 
  401f89:	b8 00 00 00 00       	mov    $0x0,%eax
  401f8e:	e8 bc f9 ff ff       	callq  40194f <test>
  401f93:	83 3d 6e 35 20 00 00 	cmpl   $0x0,0x20356e(%rip)        # 605508 <is_checker>
  401f9a:	74 14                	je     401fb0 <launch+0x75>
  401f9c:	bf 29 34 40 00       	mov    $0x403429,%edi
  401fa1:	e8 aa ec ff ff       	callq  400c50 <puts@plt>
  401fa6:	b8 00 00 00 00       	mov    $0x0,%eax
  401fab:	e8 5b fb ff ff       	callq  401b0b <check_fail>
  401fb0:	bf 34 34 40 00       	mov    $0x403434,%edi
  401fb5:	e8 96 ec ff ff       	callq  400c50 <puts@plt>
  401fba:	c9                   	leaveq 
  401fbb:	c3                   	retq   

0000000000401fbc <stable_launch>:
  401fbc:	53                   	push   %rbx
  401fbd:	48 89 3d 24 35 20 00 	mov    %rdi,0x203524(%rip)        # 6054e8 <global_offset>
  401fc4:	41 b9 00 00 00 00    	mov    $0x0,%r9d
  401fca:	41 b8 00 00 00 00    	mov    $0x0,%r8d
  401fd0:	b9 32 01 00 00       	mov    $0x132,%ecx
  401fd5:	ba 07 00 00 00       	mov    $0x7,%edx
  401fda:	be 00 00 10 00       	mov    $0x100000,%esi
  401fdf:	bf 00 60 58 55       	mov    $0x55586000,%edi
  401fe4:	e8 87 ec ff ff       	callq  400c70 <mmap@plt>
  401fe9:	48 89 c3             	mov    %rax,%rbx
  401fec:	48 3d 00 60 58 55    	cmp    $0x55586000,%rax
  401ff2:	74 32                	je     402026 <stable_launch+0x6a>
  401ff4:	be 00 00 10 00       	mov    $0x100000,%esi
  401ff9:	48 89 c7             	mov    %rax,%rdi
  401ffc:	e8 7f ed ff ff       	callq  400d80 <munmap@plt>
  402001:	ba 00 60 58 55       	mov    $0x55586000,%edx
  402006:	be e8 35 40 00       	mov    $0x4035e8,%esi
  40200b:	48 8b 3d be 34 20 00 	mov    0x2034be(%rip),%rdi        # 6054d0 <stderr@@GLIBC_2.2.5>
  402012:	b8 00 00 00 00       	mov    $0x0,%eax
  402017:	e8 e4 ec ff ff       	callq  400d00 <fprintf@plt>
  40201c:	bf 01 00 00 00       	mov    $0x1,%edi
  402021:	e8 ca ed ff ff       	callq  400df0 <exit@plt>
  402026:	48 8d 90 f8 ff 0f 00 	lea    0xffff8(%rax),%rdx
  40202d:	48 89 15 fc 40 20 00 	mov    %rdx,0x2040fc(%rip)        # 606130 <stack_top>
  402034:	48 89 e0             	mov    %rsp,%rax
  402037:	48 89 d4             	mov    %rdx,%rsp
  40203a:	48 89 c2             	mov    %rax,%rdx
  40203d:	48 89 15 9c 34 20 00 	mov    %rdx,0x20349c(%rip)        # 6054e0 <global_save_stack>
  402044:	48 8b 3d 9d 34 20 00 	mov    0x20349d(%rip),%rdi        # 6054e8 <global_offset>
  40204b:	e8 eb fe ff ff       	callq  401f3b <launch>
  402050:	48 8b 05 89 34 20 00 	mov    0x203489(%rip),%rax        # 6054e0 <global_save_stack>
  402057:	48 89 c4             	mov    %rax,%rsp
  40205a:	be 00 00 10 00       	mov    $0x100000,%esi
  40205f:	48 89 df             	mov    %rbx,%rdi
  402062:	e8 19 ed ff ff       	callq  400d80 <munmap@plt>
  402067:	5b                   	pop    %rbx
  402068:	c3                   	retq   
  402069:	0f 1f 80 00 00 00 00 	nopl   0x0(%rax)

0000000000402070 <rio_readinitb>:
  402070:	89 37                	mov    %esi,(%rdi)
  402072:	c7 47 04 00 00 00 00 	movl   $0x0,0x4(%rdi)
  402079:	48 8d 47 10          	lea    0x10(%rdi),%rax
  40207d:	48 89 47 08          	mov    %rax,0x8(%rdi)
  402081:	c3                   	retq   

0000000000402082 <sigalrm_handler>:
  402082:	48 83 ec 08          	sub    $0x8,%rsp
  402086:	ba 00 00 00 00       	mov    $0x0,%edx
  40208b:	be 20 36 40 00       	mov    $0x403620,%esi
  402090:	48 8b 3d 39 34 20 00 	mov    0x203439(%rip),%rdi        # 6054d0 <stderr@@GLIBC_2.2.5>
  402097:	b8 00 00 00 00       	mov    $0x0,%eax
  40209c:	e8 5f ec ff ff       	callq  400d00 <fprintf@plt>
  4020a1:	bf 01 00 00 00       	mov    $0x1,%edi
  4020a6:	e8 45 ed ff ff       	callq  400df0 <exit@plt>

00000000004020ab <urlencode>:
  4020ab:	41 54                	push   %r12
  4020ad:	55                   	push   %rbp
  4020ae:	53                   	push   %rbx
  4020af:	48 83 ec 10          	sub    $0x10,%rsp
  4020b3:	48 89 fb             	mov    %rdi,%rbx
  4020b6:	48 89 f5             	mov    %rsi,%rbp
  4020b9:	b8 00 00 00 00       	mov    $0x0,%eax
  4020be:	48 c7 c1 ff ff ff ff 	mov    $0xffffffffffffffff,%rcx
  4020c5:	f2 ae                	repnz scas %es:(%rdi),%al
  4020c7:	48 f7 d1             	not    %rcx
  4020ca:	8d 41 ff             	lea    -0x1(%rcx),%eax
  4020cd:	e9 93 00 00 00       	jmpq   402165 <urlencode+0xba>
  4020d2:	0f b6 13             	movzbl (%rbx),%edx
  4020d5:	80 fa 2a             	cmp    $0x2a,%dl
  4020d8:	0f 94 c1             	sete   %cl
  4020db:	80 fa 2d             	cmp    $0x2d,%dl
  4020de:	0f 94 c0             	sete   %al
  4020e1:	08 c1                	or     %al,%cl
  4020e3:	75 1f                	jne    402104 <urlencode+0x59>
  4020e5:	80 fa 2e             	cmp    $0x2e,%dl
  4020e8:	74 1a                	je     402104 <urlencode+0x59>
  4020ea:	80 fa 5f             	cmp    $0x5f,%dl
  4020ed:	74 15                	je     402104 <urlencode+0x59>
  4020ef:	8d 42 d0             	lea    -0x30(%rdx),%eax
  4020f2:	3c 09                	cmp    $0x9,%al
  4020f4:	76 0e                	jbe    402104 <urlencode+0x59>
  4020f6:	8d 42 bf             	lea    -0x41(%rdx),%eax
  4020f9:	3c 19                	cmp    $0x19,%al
  4020fb:	76 07                	jbe    402104 <urlencode+0x59>
  4020fd:	8d 42 9f             	lea    -0x61(%rdx),%eax
  402100:	3c 19                	cmp    $0x19,%al
  402102:	77 09                	ja     40210d <urlencode+0x62>
  402104:	88 55 00             	mov    %dl,0x0(%rbp)
  402107:	48 8d 6d 01          	lea    0x1(%rbp),%rbp
  40210b:	eb 51                	jmp    40215e <urlencode+0xb3>
  40210d:	80 fa 20             	cmp    $0x20,%dl
  402110:	75 0a                	jne    40211c <urlencode+0x71>
  402112:	c6 45 00 2b          	movb   $0x2b,0x0(%rbp)
  402116:	48 8d 6d 01          	lea    0x1(%rbp),%rbp
  40211a:	eb 42                	jmp    40215e <urlencode+0xb3>
  40211c:	8d 42 e0             	lea    -0x20(%rdx),%eax
  40211f:	3c 5f                	cmp    $0x5f,%al
  402121:	0f 96 c1             	setbe  %cl
  402124:	80 fa 09             	cmp    $0x9,%dl
  402127:	0f 94 c0             	sete   %al
  40212a:	08 c1                	or     %al,%cl
  40212c:	74 45                	je     402173 <urlencode+0xc8>
  40212e:	0f b6 d2             	movzbl %dl,%edx
  402131:	be b8 36 40 00       	mov    $0x4036b8,%esi
  402136:	48 89 e7             	mov    %rsp,%rdi
  402139:	b8 00 00 00 00       	mov    $0x0,%eax
  40213e:	e8 9d ec ff ff       	callq  400de0 <sprintf@plt>
  402143:	0f b6 04 24          	movzbl (%rsp),%eax
  402147:	88 45 00             	mov    %al,0x0(%rbp)
  40214a:	0f b6 44 24 01       	movzbl 0x1(%rsp),%eax
  40214f:	88 45 01             	mov    %al,0x1(%rbp)
  402152:	0f b6 44 24 02       	movzbl 0x2(%rsp),%eax
  402157:	88 45 02             	mov    %al,0x2(%rbp)
  40215a:	48 8d 6d 03          	lea    0x3(%rbp),%rbp
  40215e:	48 83 c3 01          	add    $0x1,%rbx
  402162:	44 89 e0             	mov    %r12d,%eax
  402165:	44 8d 60 ff          	lea    -0x1(%rax),%r12d
  402169:	85 c0                	test   %eax,%eax
  40216b:	0f 85 61 ff ff ff    	jne    4020d2 <urlencode+0x27>
  402171:	eb 05                	jmp    402178 <urlencode+0xcd>
  402173:	b8 ff ff ff ff       	mov    $0xffffffff,%eax
  402178:	48 83 c4 10          	add    $0x10,%rsp
  40217c:	5b                   	pop    %rbx
  40217d:	5d                   	pop    %rbp
  40217e:	41 5c                	pop    %r12
  402180:	c3                   	retq   

0000000000402181 <rio_writen>:
  402181:	41 55                	push   %r13
  402183:	41 54                	push   %r12
  402185:	55                   	push   %rbp
  402186:	53                   	push   %rbx
  402187:	48 83 ec 08          	sub    $0x8,%rsp
  40218b:	41 89 fc             	mov    %edi,%r12d
  40218e:	48 89 f5             	mov    %rsi,%rbp
  402191:	49 89 d5             	mov    %rdx,%r13
  402194:	48 89 d3             	mov    %rdx,%rbx
  402197:	eb 28                	jmp    4021c1 <rio_writen+0x40>
  402199:	48 89 da             	mov    %rbx,%rdx
  40219c:	48 89 ee             	mov    %rbp,%rsi
  40219f:	44 89 e7             	mov    %r12d,%edi
  4021a2:	e8 b9 ea ff ff       	callq  400c60 <write@plt>
  4021a7:	48 85 c0             	test   %rax,%rax
  4021aa:	7f 0f                	jg     4021bb <rio_writen+0x3a>
  4021ac:	e8 5f ea ff ff       	callq  400c10 <__errno_location@plt>
  4021b1:	83 38 04             	cmpl   $0x4,(%rax)
  4021b4:	75 15                	jne    4021cb <rio_writen+0x4a>
  4021b6:	b8 00 00 00 00       	mov    $0x0,%eax
  4021bb:	48 29 c3             	sub    %rax,%rbx
  4021be:	48 01 c5             	add    %rax,%rbp
  4021c1:	48 85 db             	test   %rbx,%rbx
  4021c4:	75 d3                	jne    402199 <rio_writen+0x18>
  4021c6:	4c 89 e8             	mov    %r13,%rax
  4021c9:	eb 07                	jmp    4021d2 <rio_writen+0x51>
  4021cb:	48 c7 c0 ff ff ff ff 	mov    $0xffffffffffffffff,%rax
  4021d2:	48 83 c4 08          	add    $0x8,%rsp
  4021d6:	5b                   	pop    %rbx
  4021d7:	5d                   	pop    %rbp
  4021d8:	41 5c                	pop    %r12
  4021da:	41 5d                	pop    %r13
  4021dc:	c3                   	retq   

00000000004021dd <rio_read>:
  4021dd:	41 56                	push   %r14
  4021df:	41 55                	push   %r13
  4021e1:	41 54                	push   %r12
  4021e3:	55                   	push   %rbp
  4021e4:	53                   	push   %rbx
  4021e5:	48 89 fb             	mov    %rdi,%rbx
  4021e8:	49 89 f6             	mov    %rsi,%r14
  4021eb:	49 89 d5             	mov    %rdx,%r13
  4021ee:	4c 8d 67 10          	lea    0x10(%rdi),%r12
  4021f2:	eb 2a                	jmp    40221e <rio_read+0x41>
  4021f4:	ba 00 20 00 00       	mov    $0x2000,%edx
  4021f9:	4c 89 e6             	mov    %r12,%rsi
  4021fc:	8b 3b                	mov    (%rbx),%edi
  4021fe:	e8 bd ea ff ff       	callq  400cc0 <read@plt>
  402203:	89 43 04             	mov    %eax,0x4(%rbx)
  402206:	85 c0                	test   %eax,%eax
  402208:	79 0c                	jns    402216 <rio_read+0x39>
  40220a:	e8 01 ea ff ff       	callq  400c10 <__errno_location@plt>
  40220f:	83 38 04             	cmpl   $0x4,(%rax)
  402212:	74 0a                	je     40221e <rio_read+0x41>
  402214:	eb 37                	jmp    40224d <rio_read+0x70>
  402216:	85 c0                	test   %eax,%eax
  402218:	74 3c                	je     402256 <rio_read+0x79>
  40221a:	4c 89 63 08          	mov    %r12,0x8(%rbx)
  40221e:	8b 6b 04             	mov    0x4(%rbx),%ebp
  402221:	85 ed                	test   %ebp,%ebp
  402223:	7e cf                	jle    4021f4 <rio_read+0x17>
  402225:	89 e8                	mov    %ebp,%eax
  402227:	4c 39 e8             	cmp    %r13,%rax
  40222a:	72 03                	jb     40222f <rio_read+0x52>
  40222c:	44 89 ed             	mov    %r13d,%ebp
  40222f:	4c 63 e5             	movslq %ebp,%r12
  402232:	48 8b 73 08          	mov    0x8(%rbx),%rsi
  402236:	4c 89 e2             	mov    %r12,%rdx
  402239:	4c 89 f7             	mov    %r14,%rdi
  40223c:	e8 ef ea ff ff       	callq  400d30 <memcpy@plt>
  402241:	4c 01 63 08          	add    %r12,0x8(%rbx)
  402245:	29 6b 04             	sub    %ebp,0x4(%rbx)
  402248:	4c 89 e0             	mov    %r12,%rax
  40224b:	eb 0e                	jmp    40225b <rio_read+0x7e>
  40224d:	48 c7 c0 ff ff ff ff 	mov    $0xffffffffffffffff,%rax
  402254:	eb 05                	jmp    40225b <rio_read+0x7e>
  402256:	b8 00 00 00 00       	mov    $0x0,%eax
  40225b:	5b                   	pop    %rbx
  40225c:	5d                   	pop    %rbp
  40225d:	41 5c                	pop    %r12
  40225f:	41 5d                	pop    %r13
  402261:	41 5e                	pop    %r14
  402263:	c3                   	retq   

0000000000402264 <rio_readlineb>:
  402264:	41 55                	push   %r13
  402266:	41 54                	push   %r12
  402268:	55                   	push   %rbp
  402269:	53                   	push   %rbx
  40226a:	48 83 ec 18          	sub    $0x18,%rsp
  40226e:	49 89 fd             	mov    %rdi,%r13
  402271:	48 89 f5             	mov    %rsi,%rbp
  402274:	49 89 d4             	mov    %rdx,%r12
  402277:	bb 01 00 00 00       	mov    $0x1,%ebx
  40227c:	eb 3d                	jmp    4022bb <rio_readlineb+0x57>
  40227e:	ba 01 00 00 00       	mov    $0x1,%edx
  402283:	48 8d 74 24 0f       	lea    0xf(%rsp),%rsi
  402288:	4c 89 ef             	mov    %r13,%rdi
  40228b:	e8 4d ff ff ff       	callq  4021dd <rio_read>
  402290:	83 f8 01             	cmp    $0x1,%eax
  402293:	75 12                	jne    4022a7 <rio_readlineb+0x43>
  402295:	48 8d 55 01          	lea    0x1(%rbp),%rdx
  402299:	0f b6 44 24 0f       	movzbl 0xf(%rsp),%eax
  40229e:	88 45 00             	mov    %al,0x0(%rbp)
  4022a1:	3c 0a                	cmp    $0xa,%al
  4022a3:	75 0f                	jne    4022b4 <rio_readlineb+0x50>
  4022a5:	eb 1b                	jmp    4022c2 <rio_readlineb+0x5e>
  4022a7:	85 c0                	test   %eax,%eax
  4022a9:	75 23                	jne    4022ce <rio_readlineb+0x6a>
  4022ab:	48 83 fb 01          	cmp    $0x1,%rbx
  4022af:	90                   	nop
  4022b0:	75 13                	jne    4022c5 <rio_readlineb+0x61>
  4022b2:	eb 23                	jmp    4022d7 <rio_readlineb+0x73>
  4022b4:	48 83 c3 01          	add    $0x1,%rbx
  4022b8:	48 89 d5             	mov    %rdx,%rbp
  4022bb:	4c 39 e3             	cmp    %r12,%rbx
  4022be:	72 be                	jb     40227e <rio_readlineb+0x1a>
  4022c0:	eb 03                	jmp    4022c5 <rio_readlineb+0x61>
  4022c2:	48 89 d5             	mov    %rdx,%rbp
  4022c5:	c6 45 00 00          	movb   $0x0,0x0(%rbp)
  4022c9:	48 89 d8             	mov    %rbx,%rax
  4022cc:	eb 0e                	jmp    4022dc <rio_readlineb+0x78>
  4022ce:	48 c7 c0 ff ff ff ff 	mov    $0xffffffffffffffff,%rax
  4022d5:	eb 05                	jmp    4022dc <rio_readlineb+0x78>
  4022d7:	b8 00 00 00 00       	mov    $0x0,%eax
  4022dc:	48 83 c4 18          	add    $0x18,%rsp
  4022e0:	5b                   	pop    %rbx
  4022e1:	5d                   	pop    %rbp
  4022e2:	41 5c                	pop    %r12
  4022e4:	41 5d                	pop    %r13
  4022e6:	c3                   	retq   

00000000004022e7 <submitr>:
  4022e7:	41 57                	push   %r15
  4022e9:	41 56                	push   %r14
  4022eb:	41 55                	push   %r13
  4022ed:	41 54                	push   %r12
  4022ef:	55                   	push   %rbp
  4022f0:	53                   	push   %rbx
  4022f1:	48 81 ec 48 a0 00 00 	sub    $0xa048,%rsp
  4022f8:	49 89 fc             	mov    %rdi,%r12
  4022fb:	89 74 24 04          	mov    %esi,0x4(%rsp)
  4022ff:	49 89 d7             	mov    %rdx,%r15
  402302:	49 89 ce             	mov    %rcx,%r14
  402305:	4c 89 44 24 08       	mov    %r8,0x8(%rsp)
  40230a:	4d 89 cd             	mov    %r9,%r13
  40230d:	48 8b 9c 24 80 a0 00 	mov    0xa080(%rsp),%rbx
  402314:	00 
  402315:	c7 84 24 1c 20 00 00 	movl   $0x0,0x201c(%rsp)
  40231c:	00 00 00 00 
  402320:	ba 00 00 00 00       	mov    $0x0,%edx
  402325:	be 01 00 00 00       	mov    $0x1,%esi
  40232a:	bf 02 00 00 00       	mov    $0x2,%edi
  40232f:	e8 dc ea ff ff       	callq  400e10 <socket@plt>
  402334:	89 c5                	mov    %eax,%ebp
  402336:	85 c0                	test   %eax,%eax
  402338:	79 4e                	jns    402388 <submitr+0xa1>
  40233a:	48 b8 45 72 72 6f 72 	movabs $0x43203a726f727245,%rax
  402341:	3a 20 43 
  402344:	48 89 03             	mov    %rax,(%rbx)
  402347:	48 b8 6c 69 65 6e 74 	movabs $0x6e7520746e65696c,%rax
  40234e:	20 75 6e 
  402351:	48 89 43 08          	mov    %rax,0x8(%rbx)
  402355:	48 b8 61 62 6c 65 20 	movabs $0x206f7420656c6261,%rax
  40235c:	74 6f 20 
  40235f:	48 89 43 10          	mov    %rax,0x10(%rbx)
  402363:	48 b8 63 72 65 61 74 	movabs $0x7320657461657263,%rax
  40236a:	65 20 73 
  40236d:	48 89 43 18          	mov    %rax,0x18(%rbx)
  402371:	c7 43 20 6f 63 6b 65 	movl   $0x656b636f,0x20(%rbx)
  402378:	66 c7 43 24 74 00    	movw   $0x74,0x24(%rbx)
  40237e:	b8 ff ff ff ff       	mov    $0xffffffff,%eax
  402383:	e9 68 06 00 00       	jmpq   4029f0 <submitr+0x709>
  402388:	4c 89 e7             	mov    %r12,%rdi
  40238b:	e8 60 e9 ff ff       	callq  400cf0 <gethostbyname@plt>
  402390:	48 85 c0             	test   %rax,%rax
  402393:	75 67                	jne    4023fc <submitr+0x115>
  402395:	48 b8 45 72 72 6f 72 	movabs $0x44203a726f727245,%rax
  40239c:	3a 20 44 
  40239f:	48 89 03             	mov    %rax,(%rbx)
  4023a2:	48 b8 4e 53 20 69 73 	movabs $0x6e7520736920534e,%rax
  4023a9:	20 75 6e 
  4023ac:	48 89 43 08          	mov    %rax,0x8(%rbx)
  4023b0:	48 b8 61 62 6c 65 20 	movabs $0x206f7420656c6261,%rax
  4023b7:	74 6f 20 
  4023ba:	48 89 43 10          	mov    %rax,0x10(%rbx)
  4023be:	48 b8 72 65 73 6f 6c 	movabs $0x2065766c6f736572,%rax
  4023c5:	76 65 20 
  4023c8:	48 89 43 18          	mov    %rax,0x18(%rbx)
  4023cc:	48 b8 73 65 72 76 65 	movabs $0x6120726576726573,%rax
  4023d3:	72 20 61 
  4023d6:	48 89 43 20          	mov    %rax,0x20(%rbx)
  4023da:	c7 43 28 64 64 72 65 	movl   $0x65726464,0x28(%rbx)
  4023e1:	66 c7 43 2c 73 73    	movw   $0x7373,0x2c(%rbx)
  4023e7:	c6 43 2e 00          	movb   $0x0,0x2e(%rbx)
  4023eb:	89 ef                	mov    %ebp,%edi
  4023ed:	e8 be e8 ff ff       	callq  400cb0 <close@plt>
  4023f2:	b8 ff ff ff ff       	mov    $0xffffffff,%eax
  4023f7:	e9 f4 05 00 00       	jmpq   4029f0 <submitr+0x709>
  4023fc:	48 c7 84 24 30 a0 00 	movq   $0x0,0xa030(%rsp)
  402403:	00 00 00 00 00 
  402408:	48 c7 84 24 38 a0 00 	movq   $0x0,0xa038(%rsp)
  40240f:	00 00 00 00 00 
  402414:	66 c7 84 24 30 a0 00 	movw   $0x2,0xa030(%rsp)
  40241b:	00 02 00 
  40241e:	48 8b 48 18          	mov    0x18(%rax),%rcx
  402422:	48 63 50 14          	movslq 0x14(%rax),%rdx
  402426:	48 8d b4 24 34 a0 00 	lea    0xa034(%rsp),%rsi
  40242d:	00 
  40242e:	48 8b 39             	mov    (%rcx),%rdi
  402431:	e8 5a e9 ff ff       	callq  400d90 <bcopy@plt>
  402436:	0f b7 44 24 04       	movzwl 0x4(%rsp),%eax
  40243b:	66 c1 c8 08          	ror    $0x8,%ax
  40243f:	66 89 84 24 32 a0 00 	mov    %ax,0xa032(%rsp)
  402446:	00 
  402447:	ba 10 00 00 00       	mov    $0x10,%edx
  40244c:	48 8d b4 24 30 a0 00 	lea    0xa030(%rsp),%rsi
  402453:	00 
  402454:	89 ef                	mov    %ebp,%edi
  402456:	e8 a5 e9 ff ff       	callq  400e00 <connect@plt>
  40245b:	85 c0                	test   %eax,%eax
  40245d:	79 59                	jns    4024b8 <submitr+0x1d1>
  40245f:	48 b8 45 72 72 6f 72 	movabs $0x55203a726f727245,%rax
  402466:	3a 20 55 
  402469:	48 89 03             	mov    %rax,(%rbx)
  40246c:	48 b8 6e 61 62 6c 65 	movabs $0x6f7420656c62616e,%rax
  402473:	20 74 6f 
  402476:	48 89 43 08          	mov    %rax,0x8(%rbx)
  40247a:	48 b8 20 63 6f 6e 6e 	movabs $0x7463656e6e6f6320,%rax
  402481:	65 63 74 
  402484:	48 89 43 10          	mov    %rax,0x10(%rbx)
  402488:	48 b8 20 74 6f 20 74 	movabs $0x20656874206f7420,%rax
  40248f:	68 65 20 
  402492:	48 89 43 18          	mov    %rax,0x18(%rbx)
  402496:	c7 43 20 73 65 72 76 	movl   $0x76726573,0x20(%rbx)
  40249d:	66 c7 43 24 65 72    	movw   $0x7265,0x24(%rbx)
  4024a3:	c6 43 26 00          	movb   $0x0,0x26(%rbx)
  4024a7:	89 ef                	mov    %ebp,%edi
  4024a9:	e8 02 e8 ff ff       	callq  400cb0 <close@plt>
  4024ae:	b8 ff ff ff ff       	mov    $0xffffffff,%eax
  4024b3:	e9 38 05 00 00       	jmpq   4029f0 <submitr+0x709>
  4024b8:	48 c7 c2 ff ff ff ff 	mov    $0xffffffffffffffff,%rdx
  4024bf:	4c 89 ef             	mov    %r13,%rdi
  4024c2:	b8 00 00 00 00       	mov    $0x0,%eax
  4024c7:	48 89 d1             	mov    %rdx,%rcx
  4024ca:	f2 ae                	repnz scas %es:(%rdi),%al
  4024cc:	48 f7 d1             	not    %rcx
  4024cf:	48 89 ce             	mov    %rcx,%rsi
  4024d2:	4c 89 ff             	mov    %r15,%rdi
  4024d5:	48 89 d1             	mov    %rdx,%rcx
  4024d8:	f2 ae                	repnz scas %es:(%rdi),%al
  4024da:	48 f7 d1             	not    %rcx
  4024dd:	49 89 c8             	mov    %rcx,%r8
  4024e0:	4c 89 f7             	mov    %r14,%rdi
  4024e3:	48 89 d1             	mov    %rdx,%rcx
  4024e6:	f2 ae                	repnz scas %es:(%rdi),%al
  4024e8:	49 29 c8             	sub    %rcx,%r8
  4024eb:	48 8b 7c 24 08       	mov    0x8(%rsp),%rdi
  4024f0:	48 89 d1             	mov    %rdx,%rcx
  4024f3:	f2 ae                	repnz scas %es:(%rdi),%al
  4024f5:	49 29 c8             	sub    %rcx,%r8
  4024f8:	48 8d 44 76 fd       	lea    -0x3(%rsi,%rsi,2),%rax
  4024fd:	49 8d 44 00 7b       	lea    0x7b(%r8,%rax,1),%rax
  402502:	48 3d 00 20 00 00    	cmp    $0x2000,%rax
  402508:	76 72                	jbe    40257c <submitr+0x295>
  40250a:	48 b8 45 72 72 6f 72 	movabs $0x52203a726f727245,%rax
  402511:	3a 20 52 
  402514:	48 89 03             	mov    %rax,(%rbx)
  402517:	48 b8 65 73 75 6c 74 	movabs $0x747320746c757365,%rax
  40251e:	20 73 74 
  402521:	48 89 43 08          	mov    %rax,0x8(%rbx)
  402525:	48 b8 72 69 6e 67 20 	movabs $0x6f6f7420676e6972,%rax
  40252c:	74 6f 6f 
  40252f:	48 89 43 10          	mov    %rax,0x10(%rbx)
  402533:	48 b8 20 6c 61 72 67 	movabs $0x202e656772616c20,%rax
  40253a:	65 2e 20 
  40253d:	48 89 43 18          	mov    %rax,0x18(%rbx)
  402541:	48 b8 49 6e 63 72 65 	movabs $0x6573616572636e49,%rax
  402548:	61 73 65 
  40254b:	48 89 43 20          	mov    %rax,0x20(%rbx)
  40254f:	48 b8 20 53 55 42 4d 	movabs $0x5254494d42555320,%rax
  402556:	49 54 52 
  402559:	48 89 43 28          	mov    %rax,0x28(%rbx)
  40255d:	48 b8 5f 4d 41 58 42 	movabs $0x46554258414d5f,%rax
  402564:	55 46 00 
  402567:	48 89 43 30          	mov    %rax,0x30(%rbx)
  40256b:	89 ef                	mov    %ebp,%edi
  40256d:	e8 3e e7 ff ff       	callq  400cb0 <close@plt>
  402572:	b8 ff ff ff ff       	mov    $0xffffffff,%eax
  402577:	e9 74 04 00 00       	jmpq   4029f0 <submitr+0x709>
  40257c:	48 8d b4 24 20 40 00 	lea    0x4020(%rsp),%rsi
  402583:	00 
  402584:	b9 00 04 00 00       	mov    $0x400,%ecx
  402589:	b8 00 00 00 00       	mov    $0x0,%eax
  40258e:	48 89 f7             	mov    %rsi,%rdi
  402591:	f3 48 ab             	rep stos %rax,%es:(%rdi)
  402594:	4c 89 ef             	mov    %r13,%rdi
  402597:	e8 0f fb ff ff       	callq  4020ab <urlencode>
  40259c:	85 c0                	test   %eax,%eax
  40259e:	0f 89 8a 00 00 00    	jns    40262e <submitr+0x347>
  4025a4:	48 b8 45 72 72 6f 72 	movabs $0x52203a726f727245,%rax
  4025ab:	3a 20 52 
  4025ae:	48 89 03             	mov    %rax,(%rbx)
  4025b1:	48 b8 65 73 75 6c 74 	movabs $0x747320746c757365,%rax
  4025b8:	20 73 74 
  4025bb:	48 89 43 08          	mov    %rax,0x8(%rbx)
  4025bf:	48 b8 72 69 6e 67 20 	movabs $0x6e6f6320676e6972,%rax
  4025c6:	63 6f 6e 
  4025c9:	48 89 43 10          	mov    %rax,0x10(%rbx)
  4025cd:	48 b8 74 61 69 6e 73 	movabs $0x6e6120736e696174,%rax
  4025d4:	20 61 6e 
  4025d7:	48 89 43 18          	mov    %rax,0x18(%rbx)
  4025db:	48 b8 20 69 6c 6c 65 	movabs $0x6c6167656c6c6920,%rax
  4025e2:	67 61 6c 
  4025e5:	48 89 43 20          	mov    %rax,0x20(%rbx)
  4025e9:	48 b8 20 6f 72 20 75 	movabs $0x72706e7520726f20,%rax
  4025f0:	6e 70 72 
  4025f3:	48 89 43 28          	mov    %rax,0x28(%rbx)
  4025f7:	48 b8 69 6e 74 61 62 	movabs $0x20656c6261746e69,%rax
  4025fe:	6c 65 20 
  402601:	48 89 43 30          	mov    %rax,0x30(%rbx)
  402605:	48 b8 63 68 61 72 61 	movabs $0x6574636172616863,%rax
  40260c:	63 74 65 
  40260f:	48 89 43 38          	mov    %rax,0x38(%rbx)
  402613:	66 c7 43 40 72 2e    	movw   $0x2e72,0x40(%rbx)
  402619:	c6 43 42 00          	movb   $0x0,0x42(%rbx)
  40261d:	89 ef                	mov    %ebp,%edi
  40261f:	e8 8c e6 ff ff       	callq  400cb0 <close@plt>
  402624:	b8 ff ff ff ff       	mov    $0xffffffff,%eax
  402629:	e9 c2 03 00 00       	jmpq   4029f0 <submitr+0x709>
  40262e:	4d 89 e1             	mov    %r12,%r9
  402631:	4c 8d 84 24 20 40 00 	lea    0x4020(%rsp),%r8
  402638:	00 
  402639:	4c 89 f9             	mov    %r15,%rcx
  40263c:	4c 89 f2             	mov    %r14,%rdx
  40263f:	be 48 36 40 00       	mov    $0x403648,%esi
  402644:	48 8d bc 24 20 60 00 	lea    0x6020(%rsp),%rdi
  40264b:	00 
  40264c:	b8 00 00 00 00       	mov    $0x0,%eax
  402651:	e8 8a e7 ff ff       	callq  400de0 <sprintf@plt>
  402656:	48 8d bc 24 20 60 00 	lea    0x6020(%rsp),%rdi
  40265d:	00 
  40265e:	b8 00 00 00 00       	mov    $0x0,%eax
  402663:	48 c7 c1 ff ff ff ff 	mov    $0xffffffffffffffff,%rcx
  40266a:	f2 ae                	repnz scas %es:(%rdi),%al
  40266c:	48 f7 d1             	not    %rcx
  40266f:	48 8d 51 ff          	lea    -0x1(%rcx),%rdx
  402673:	48 8d b4 24 20 60 00 	lea    0x6020(%rsp),%rsi
  40267a:	00 
  40267b:	89 ef                	mov    %ebp,%edi
  40267d:	e8 ff fa ff ff       	callq  402181 <rio_writen>
  402682:	48 85 c0             	test   %rax,%rax
  402685:	79 6e                	jns    4026f5 <submitr+0x40e>
  402687:	48 b8 45 72 72 6f 72 	movabs $0x43203a726f727245,%rax
  40268e:	3a 20 43 
  402691:	48 89 03             	mov    %rax,(%rbx)
  402694:	48 b8 6c 69 65 6e 74 	movabs $0x6e7520746e65696c,%rax
  40269b:	20 75 6e 
  40269e:	48 89 43 08          	mov    %rax,0x8(%rbx)
  4026a2:	48 b8 61 62 6c 65 20 	movabs $0x206f7420656c6261,%rax
  4026a9:	74 6f 20 
  4026ac:	48 89 43 10          	mov    %rax,0x10(%rbx)
  4026b0:	48 b8 77 72 69 74 65 	movabs $0x6f74206574697277,%rax
  4026b7:	20 74 6f 
  4026ba:	48 89 43 18          	mov    %rax,0x18(%rbx)
  4026be:	48 b8 20 74 68 65 20 	movabs $0x7365722065687420,%rax
  4026c5:	72 65 73 
  4026c8:	48 89 43 20          	mov    %rax,0x20(%rbx)
  4026cc:	48 b8 75 6c 74 20 73 	movabs $0x7672657320746c75,%rax
  4026d3:	65 72 76 
  4026d6:	48 89 43 28          	mov    %rax,0x28(%rbx)
  4026da:	66 c7 43 30 65 72    	movw   $0x7265,0x30(%rbx)
  4026e0:	c6 43 32 00          	movb   $0x0,0x32(%rbx)
  4026e4:	89 ef                	mov    %ebp,%edi
  4026e6:	e8 c5 e5 ff ff       	callq  400cb0 <close@plt>
  4026eb:	b8 ff ff ff ff       	mov    $0xffffffff,%eax
  4026f0:	e9 fb 02 00 00       	jmpq   4029f0 <submitr+0x709>
  4026f5:	89 ee                	mov    %ebp,%esi
  4026f7:	48 8d bc 24 20 80 00 	lea    0x8020(%rsp),%rdi
  4026fe:	00 
  4026ff:	e8 6c f9 ff ff       	callq  402070 <rio_readinitb>
  402704:	ba 00 20 00 00       	mov    $0x2000,%edx
  402709:	48 8d b4 24 20 60 00 	lea    0x6020(%rsp),%rsi
  402710:	00 
  402711:	48 8d bc 24 20 80 00 	lea    0x8020(%rsp),%rdi
  402718:	00 
  402719:	e8 46 fb ff ff       	callq  402264 <rio_readlineb>
  40271e:	48 85 c0             	test   %rax,%rax
  402721:	7f 7d                	jg     4027a0 <submitr+0x4b9>
  402723:	48 b8 45 72 72 6f 72 	movabs $0x43203a726f727245,%rax
  40272a:	3a 20 43 
  40272d:	48 89 03             	mov    %rax,(%rbx)
  402730:	48 b8 6c 69 65 6e 74 	movabs $0x6e7520746e65696c,%rax
  402737:	20 75 6e 
  40273a:	48 89 43 08          	mov    %rax,0x8(%rbx)
  40273e:	48 b8 61 62 6c 65 20 	movabs $0x206f7420656c6261,%rax
  402745:	74 6f 20 
  402748:	48 89 43 10          	mov    %rax,0x10(%rbx)
  40274c:	48 b8 72 65 61 64 20 	movabs $0x7269662064616572,%rax
  402753:	66 69 72 
  402756:	48 89 43 18          	mov    %rax,0x18(%rbx)
  40275a:	48 b8 73 74 20 68 65 	movabs $0x6564616568207473,%rax
  402761:	61 64 65 
  402764:	48 89 43 20          	mov    %rax,0x20(%rbx)
  402768:	48 b8 72 20 66 72 6f 	movabs $0x72206d6f72662072,%rax
  40276f:	6d 20 72 
  402772:	48 89 43 28          	mov    %rax,0x28(%rbx)
  402776:	48 b8 65 73 75 6c 74 	movabs $0x657320746c757365,%rax
  40277d:	20 73 65 
  402780:	48 89 43 30          	mov    %rax,0x30(%rbx)
  402784:	c7 43 38 72 76 65 72 	movl   $0x72657672,0x38(%rbx)
  40278b:	c6 43 3c 00          	movb   $0x0,0x3c(%rbx)
  40278f:	89 ef                	mov    %ebp,%edi
  402791:	e8 1a e5 ff ff       	callq  400cb0 <close@plt>
  402796:	b8 ff ff ff ff       	mov    $0xffffffff,%eax
  40279b:	e9 50 02 00 00       	jmpq   4029f0 <submitr+0x709>
  4027a0:	4c 8d 44 24 10       	lea    0x10(%rsp),%r8
  4027a5:	48 8d 8c 24 1c 20 00 	lea    0x201c(%rsp),%rcx
  4027ac:	00 
  4027ad:	48 8d 94 24 20 20 00 	lea    0x2020(%rsp),%rdx
  4027b4:	00 
  4027b5:	be bf 36 40 00       	mov    $0x4036bf,%esi
  4027ba:	48 8d bc 24 20 60 00 	lea    0x6020(%rsp),%rdi
  4027c1:	00 
  4027c2:	b8 00 00 00 00       	mov    $0x0,%eax
  4027c7:	e8 a4 e5 ff ff       	callq  400d70 <__isoc99_sscanf@plt>
  4027cc:	e9 98 00 00 00       	jmpq   402869 <submitr+0x582>
  4027d1:	ba 00 20 00 00       	mov    $0x2000,%edx
  4027d6:	48 8d b4 24 20 60 00 	lea    0x6020(%rsp),%rsi
  4027dd:	00 
  4027de:	48 8d bc 24 20 80 00 	lea    0x8020(%rsp),%rdi
  4027e5:	00 
  4027e6:	e8 79 fa ff ff       	callq  402264 <rio_readlineb>
  4027eb:	48 85 c0             	test   %rax,%rax
  4027ee:	7f 79                	jg     402869 <submitr+0x582>
  4027f0:	48 b8 45 72 72 6f 72 	movabs $0x43203a726f727245,%rax
  4027f7:	3a 20 43 
  4027fa:	48 89 03             	mov    %rax,(%rbx)
  4027fd:	48 b8 6c 69 65 6e 74 	movabs $0x6e7520746e65696c,%rax
  402804:	20 75 6e 
  402807:	48 89 43 08          	mov    %rax,0x8(%rbx)
  40280b:	48 b8 61 62 6c 65 20 	movabs $0x206f7420656c6261,%rax
  402812:	74 6f 20 
  402815:	48 89 43 10          	mov    %rax,0x10(%rbx)
  402819:	48 b8 72 65 61 64 20 	movabs $0x6165682064616572,%rax
  402820:	68 65 61 
  402823:	48 89 43 18          	mov    %rax,0x18(%rbx)
  402827:	48 b8 64 65 72 73 20 	movabs $0x6f72662073726564,%rax
  40282e:	66 72 6f 
  402831:	48 89 43 20          	mov    %rax,0x20(%rbx)
  402835:	48 b8 6d 20 74 68 65 	movabs $0x657220656874206d,%rax
  40283c:	20 72 65 
  40283f:	48 89 43 28          	mov    %rax,0x28(%rbx)
  402843:	48 b8 73 75 6c 74 20 	movabs $0x72657320746c7573,%rax
  40284a:	73 65 72 
  40284d:	48 89 43 30          	mov    %rax,0x30(%rbx)
  402851:	c7 43 38 76 65 72 00 	movl   $0x726576,0x38(%rbx)
  402858:	89 ef                	mov    %ebp,%edi
  40285a:	e8 51 e4 ff ff       	callq  400cb0 <close@plt>
  40285f:	b8 ff ff ff ff       	mov    $0xffffffff,%eax
  402864:	e9 87 01 00 00       	jmpq   4029f0 <submitr+0x709>
  402869:	0f b6 84 24 20 60 00 	movzbl 0x6020(%rsp),%eax
  402870:	00 
  402871:	83 e8 0d             	sub    $0xd,%eax
  402874:	75 15                	jne    40288b <submitr+0x5a4>
  402876:	0f b6 84 24 21 60 00 	movzbl 0x6021(%rsp),%eax
  40287d:	00 
  40287e:	83 e8 0a             	sub    $0xa,%eax
  402881:	75 08                	jne    40288b <submitr+0x5a4>
  402883:	0f b6 84 24 22 60 00 	movzbl 0x6022(%rsp),%eax
  40288a:	00 
  40288b:	85 c0                	test   %eax,%eax
  40288d:	0f 85 3e ff ff ff    	jne    4027d1 <submitr+0x4ea>
  402893:	ba 00 20 00 00       	mov    $0x2000,%edx
  402898:	48 8d b4 24 20 60 00 	lea    0x6020(%rsp),%rsi
  40289f:	00 
  4028a0:	48 8d bc 24 20 80 00 	lea    0x8020(%rsp),%rdi
  4028a7:	00 
  4028a8:	e8 b7 f9 ff ff       	callq  402264 <rio_readlineb>
  4028ad:	48 85 c0             	test   %rax,%rax
  4028b0:	0f 8f 83 00 00 00    	jg     402939 <submitr+0x652>
  4028b6:	48 b8 45 72 72 6f 72 	movabs $0x43203a726f727245,%rax
  4028bd:	3a 20 43 
  4028c0:	48 89 03             	mov    %rax,(%rbx)
  4028c3:	48 b8 6c 69 65 6e 74 	movabs $0x6e7520746e65696c,%rax
  4028ca:	20 75 6e 
  4028cd:	48 89 43 08          	mov    %rax,0x8(%rbx)
  4028d1:	48 b8 61 62 6c 65 20 	movabs $0x206f7420656c6261,%rax
  4028d8:	74 6f 20 
  4028db:	48 89 43 10          	mov    %rax,0x10(%rbx)
  4028df:	48 b8 72 65 61 64 20 	movabs $0x6174732064616572,%rax
  4028e6:	73 74 61 
  4028e9:	48 89 43 18          	mov    %rax,0x18(%rbx)
  4028ed:	48 b8 74 75 73 20 6d 	movabs $0x7373656d20737574,%rax
  4028f4:	65 73 73 
  4028f7:	48 89 43 20          	mov    %rax,0x20(%rbx)
  4028fb:	48 b8 61 67 65 20 66 	movabs $0x6d6f726620656761,%rax
  402902:	72 6f 6d 
  402905:	48 89 43 28          	mov    %rax,0x28(%rbx)
  402909:	48 b8 20 72 65 73 75 	movabs $0x20746c7573657220,%rax
  402910:	6c 74 20 
  402913:	48 89 43 30          	mov    %rax,0x30(%rbx)
  402917:	c7 43 38 73 65 72 76 	movl   $0x76726573,0x38(%rbx)
  40291e:	66 c7 43 3c 65 72    	movw   $0x7265,0x3c(%rbx)
  402924:	c6 43 3e 00          	movb   $0x0,0x3e(%rbx)
  402928:	89 ef                	mov    %ebp,%edi
  40292a:	e8 81 e3 ff ff       	callq  400cb0 <close@plt>
  40292f:	b8 ff ff ff ff       	mov    $0xffffffff,%eax
  402934:	e9 b7 00 00 00       	jmpq   4029f0 <submitr+0x709>
  402939:	8b 94 24 1c 20 00 00 	mov    0x201c(%rsp),%edx
  402940:	81 fa c8 00 00 00    	cmp    $0xc8,%edx
  402946:	74 28                	je     402970 <submitr+0x689>
  402948:	48 8d 4c 24 10       	lea    0x10(%rsp),%rcx
  40294d:	be 88 36 40 00       	mov    $0x403688,%esi
  402952:	48 89 df             	mov    %rbx,%rdi
  402955:	b8 00 00 00 00       	mov    $0x0,%eax
  40295a:	e8 81 e4 ff ff       	callq  400de0 <sprintf@plt>
  40295f:	89 ef                	mov    %ebp,%edi
  402961:	e8 4a e3 ff ff       	callq  400cb0 <close@plt>
  402966:	b8 ff ff ff ff       	mov    $0xffffffff,%eax
  40296b:	e9 80 00 00 00       	jmpq   4029f0 <submitr+0x709>
  402970:	48 8d b4 24 20 60 00 	lea    0x6020(%rsp),%rsi
  402977:	00 
  402978:	48 89 df             	mov    %rbx,%rdi
  40297b:	e8 c0 e2 ff ff       	callq  400c40 <strcpy@plt>
  402980:	89 ef                	mov    %ebp,%edi
  402982:	e8 29 e3 ff ff       	callq  400cb0 <close@plt>
  402987:	0f b6 03             	movzbl (%rbx),%eax
  40298a:	83 e8 4f             	sub    $0x4f,%eax
  40298d:	75 18                	jne    4029a7 <submitr+0x6c0>
  40298f:	0f b6 53 01          	movzbl 0x1(%rbx),%edx
  402993:	83 ea 4b             	sub    $0x4b,%edx
  402996:	75 11                	jne    4029a9 <submitr+0x6c2>
  402998:	0f b6 53 02          	movzbl 0x2(%rbx),%edx
  40299c:	83 ea 0a             	sub    $0xa,%edx
  40299f:	75 08                	jne    4029a9 <submitr+0x6c2>
  4029a1:	0f b6 53 03          	movzbl 0x3(%rbx),%edx
  4029a5:	eb 02                	jmp    4029a9 <submitr+0x6c2>
  4029a7:	89 c2                	mov    %eax,%edx
  4029a9:	85 d2                	test   %edx,%edx
  4029ab:	74 30                	je     4029dd <submitr+0x6f6>
  4029ad:	bf d0 36 40 00       	mov    $0x4036d0,%edi
  4029b2:	b9 05 00 00 00       	mov    $0x5,%ecx
  4029b7:	48 89 de             	mov    %rbx,%rsi
  4029ba:	f3 a6                	repz cmpsb %es:(%rdi),%ds:(%rsi)
  4029bc:	0f 97 c1             	seta   %cl
  4029bf:	0f 92 c2             	setb   %dl
  4029c2:	38 d1                	cmp    %dl,%cl
  4029c4:	74 1e                	je     4029e4 <submitr+0x6fd>
  4029c6:	85 c0                	test   %eax,%eax
  4029c8:	75 0d                	jne    4029d7 <submitr+0x6f0>
  4029ca:	0f b6 43 01          	movzbl 0x1(%rbx),%eax
  4029ce:	83 e8 4b             	sub    $0x4b,%eax
  4029d1:	75 04                	jne    4029d7 <submitr+0x6f0>
  4029d3:	0f b6 43 02          	movzbl 0x2(%rbx),%eax
  4029d7:	85 c0                	test   %eax,%eax
  4029d9:	75 10                	jne    4029eb <submitr+0x704>
  4029db:	eb 13                	jmp    4029f0 <submitr+0x709>
  4029dd:	b8 00 00 00 00       	mov    $0x0,%eax
  4029e2:	eb 0c                	jmp    4029f0 <submitr+0x709>
  4029e4:	b8 00 00 00 00       	mov    $0x0,%eax
  4029e9:	eb 05                	jmp    4029f0 <submitr+0x709>
  4029eb:	b8 ff ff ff ff       	mov    $0xffffffff,%eax
  4029f0:	48 81 c4 48 a0 00 00 	add    $0xa048,%rsp
  4029f7:	5b                   	pop    %rbx
  4029f8:	5d                   	pop    %rbp
  4029f9:	41 5c                	pop    %r12
  4029fb:	41 5d                	pop    %r13
  4029fd:	41 5e                	pop    %r14
  4029ff:	41 5f                	pop    %r15
  402a01:	c3                   	retq   

0000000000402a02 <init_timeout>:
  402a02:	53                   	push   %rbx
  402a03:	89 fb                	mov    %edi,%ebx
  402a05:	85 ff                	test   %edi,%edi
  402a07:	74 1f                	je     402a28 <init_timeout+0x26>
  402a09:	85 ff                	test   %edi,%edi
  402a0b:	79 05                	jns    402a12 <init_timeout+0x10>
  402a0d:	bb 00 00 00 00       	mov    $0x0,%ebx
  402a12:	be 82 20 40 00       	mov    $0x402082,%esi
  402a17:	bf 0e 00 00 00       	mov    $0xe,%edi
  402a1c:	e8 bf e2 ff ff       	callq  400ce0 <signal@plt>
  402a21:	89 df                	mov    %ebx,%edi
  402a23:	e8 78 e2 ff ff       	callq  400ca0 <alarm@plt>
  402a28:	5b                   	pop    %rbx
  402a29:	c3                   	retq   

0000000000402a2a <init_driver>:
  402a2a:	55                   	push   %rbp
  402a2b:	53                   	push   %rbx
  402a2c:	48 83 ec 18          	sub    $0x18,%rsp
  402a30:	48 89 fd             	mov    %rdi,%rbp
  402a33:	be 01 00 00 00       	mov    $0x1,%esi
  402a38:	bf 0d 00 00 00       	mov    $0xd,%edi
  402a3d:	e8 9e e2 ff ff       	callq  400ce0 <signal@plt>
  402a42:	be 01 00 00 00       	mov    $0x1,%esi
  402a47:	bf 1d 00 00 00       	mov    $0x1d,%edi
  402a4c:	e8 8f e2 ff ff       	callq  400ce0 <signal@plt>
  402a51:	be 01 00 00 00       	mov    $0x1,%esi
  402a56:	bf 1d 00 00 00       	mov    $0x1d,%edi
  402a5b:	e8 80 e2 ff ff       	callq  400ce0 <signal@plt>
  402a60:	ba 00 00 00 00       	mov    $0x0,%edx
  402a65:	be 01 00 00 00       	mov    $0x1,%esi
  402a6a:	bf 02 00 00 00       	mov    $0x2,%edi
  402a6f:	e8 9c e3 ff ff       	callq  400e10 <socket@plt>
  402a74:	89 c3                	mov    %eax,%ebx
  402a76:	85 c0                	test   %eax,%eax
  402a78:	79 4f                	jns    402ac9 <init_driver+0x9f>
  402a7a:	48 b8 45 72 72 6f 72 	movabs $0x43203a726f727245,%rax
  402a81:	3a 20 43 
  402a84:	48 89 45 00          	mov    %rax,0x0(%rbp)
  402a88:	48 b8 6c 69 65 6e 74 	movabs $0x6e7520746e65696c,%rax
  402a8f:	20 75 6e 
  402a92:	48 89 45 08          	mov    %rax,0x8(%rbp)
  402a96:	48 b8 61 62 6c 65 20 	movabs $0x206f7420656c6261,%rax
  402a9d:	74 6f 20 
  402aa0:	48 89 45 10          	mov    %rax,0x10(%rbp)
  402aa4:	48 b8 63 72 65 61 74 	movabs $0x7320657461657263,%rax
  402aab:	65 20 73 
  402aae:	48 89 45 18          	mov    %rax,0x18(%rbp)
  402ab2:	c7 45 20 6f 63 6b 65 	movl   $0x656b636f,0x20(%rbp)
  402ab9:	66 c7 45 24 74 00    	movw   $0x74,0x24(%rbp)
  402abf:	b8 ff ff ff ff       	mov    $0xffffffff,%eax
  402ac4:	e9 23 01 00 00       	jmpq   402bec <init_driver+0x1c2>
  402ac9:	bf 86 30 40 00       	mov    $0x403086,%edi
  402ace:	e8 1d e2 ff ff       	callq  400cf0 <gethostbyname@plt>
  402ad3:	48 85 c0             	test   %rax,%rax
  402ad6:	75 68                	jne    402b40 <init_driver+0x116>
  402ad8:	48 b8 45 72 72 6f 72 	movabs $0x44203a726f727245,%rax
  402adf:	3a 20 44 
  402ae2:	48 89 45 00          	mov    %rax,0x0(%rbp)
  402ae6:	48 b8 4e 53 20 69 73 	movabs $0x6e7520736920534e,%rax
  402aed:	20 75 6e 
  402af0:	48 89 45 08          	mov    %rax,0x8(%rbp)
  402af4:	48 b8 61 62 6c 65 20 	movabs $0x206f7420656c6261,%rax
  402afb:	74 6f 20 
  402afe:	48 89 45 10          	mov    %rax,0x10(%rbp)
  402b02:	48 b8 72 65 73 6f 6c 	movabs $0x2065766c6f736572,%rax
  402b09:	76 65 20 
  402b0c:	48 89 45 18          	mov    %rax,0x18(%rbp)
  402b10:	48 b8 73 65 72 76 65 	movabs $0x6120726576726573,%rax
  402b17:	72 20 61 
  402b1a:	48 89 45 20          	mov    %rax,0x20(%rbp)
  402b1e:	c7 45 28 64 64 72 65 	movl   $0x65726464,0x28(%rbp)
  402b25:	66 c7 45 2c 73 73    	movw   $0x7373,0x2c(%rbp)
  402b2b:	c6 45 2e 00          	movb   $0x0,0x2e(%rbp)
  402b2f:	89 df                	mov    %ebx,%edi
  402b31:	e8 7a e1 ff ff       	callq  400cb0 <close@plt>
  402b36:	b8 ff ff ff ff       	mov    $0xffffffff,%eax
  402b3b:	e9 ac 00 00 00       	jmpq   402bec <init_driver+0x1c2>
  402b40:	48 c7 04 24 00 00 00 	movq   $0x0,(%rsp)
  402b47:	00 
  402b48:	48 c7 44 24 08 00 00 	movq   $0x0,0x8(%rsp)
  402b4f:	00 00 
  402b51:	66 c7 04 24 02 00    	movw   $0x2,(%rsp)
  402b57:	48 8b 48 18          	mov    0x18(%rax),%rcx
  402b5b:	48 63 50 14          	movslq 0x14(%rax),%rdx
  402b5f:	48 8d 74 24 04       	lea    0x4(%rsp),%rsi
  402b64:	48 8b 39             	mov    (%rcx),%rdi
  402b67:	e8 24 e2 ff ff       	callq  400d90 <bcopy@plt>
  402b6c:	66 c7 44 24 02 3c 9a 	movw   $0x9a3c,0x2(%rsp)
  402b73:	ba 10 00 00 00       	mov    $0x10,%edx
  402b78:	48 89 e6             	mov    %rsp,%rsi
  402b7b:	89 df                	mov    %ebx,%edi
  402b7d:	e8 7e e2 ff ff       	callq  400e00 <connect@plt>
  402b82:	85 c0                	test   %eax,%eax
  402b84:	79 50                	jns    402bd6 <init_driver+0x1ac>
  402b86:	48 b8 45 72 72 6f 72 	movabs $0x55203a726f727245,%rax
  402b8d:	3a 20 55 
  402b90:	48 89 45 00          	mov    %rax,0x0(%rbp)
  402b94:	48 b8 6e 61 62 6c 65 	movabs $0x6f7420656c62616e,%rax
  402b9b:	20 74 6f 
  402b9e:	48 89 45 08          	mov    %rax,0x8(%rbp)
  402ba2:	48 b8 20 63 6f 6e 6e 	movabs $0x7463656e6e6f6320,%rax
  402ba9:	65 63 74 
  402bac:	48 89 45 10          	mov    %rax,0x10(%rbp)
  402bb0:	48 b8 20 74 6f 20 73 	movabs $0x76726573206f7420,%rax
  402bb7:	65 72 76 
  402bba:	48 89 45 18          	mov    %rax,0x18(%rbp)
  402bbe:	66 c7 45 20 65 72    	movw   $0x7265,0x20(%rbp)
  402bc4:	c6 45 22 00          	movb   $0x0,0x22(%rbp)
  402bc8:	89 df                	mov    %ebx,%edi
  402bca:	e8 e1 e0 ff ff       	callq  400cb0 <close@plt>
  402bcf:	b8 ff ff ff ff       	mov    $0xffffffff,%eax
  402bd4:	eb 16                	jmp    402bec <init_driver+0x1c2>
  402bd6:	89 df                	mov    %ebx,%edi
  402bd8:	e8 d3 e0 ff ff       	callq  400cb0 <close@plt>
  402bdd:	66 c7 45 00 4f 4b    	movw   $0x4b4f,0x0(%rbp)
  402be3:	c6 45 02 00          	movb   $0x0,0x2(%rbp)
  402be7:	b8 00 00 00 00       	mov    $0x0,%eax
  402bec:	48 83 c4 18          	add    $0x18,%rsp
  402bf0:	5b                   	pop    %rbx
  402bf1:	5d                   	pop    %rbp
  402bf2:	c3                   	retq   

0000000000402bf3 <driver_post>:
  402bf3:	53                   	push   %rbx
  402bf4:	48 83 ec 10          	sub    $0x10,%rsp
  402bf8:	4c 89 cb             	mov    %r9,%rbx
  402bfb:	45 85 c0             	test   %r8d,%r8d
  402bfe:	74 22                	je     402c22 <driver_post+0x2f>
  402c00:	48 89 ce             	mov    %rcx,%rsi
  402c03:	bf d5 36 40 00       	mov    $0x4036d5,%edi
  402c08:	b8 00 00 00 00       	mov    $0x0,%eax
  402c0d:	e8 6e e0 ff ff       	callq  400c80 <printf@plt>
  402c12:	66 c7 03 4f 4b       	movw   $0x4b4f,(%rbx)
  402c17:	c6 43 02 00          	movb   $0x0,0x2(%rbx)
  402c1b:	b8 00 00 00 00       	mov    $0x0,%eax
  402c20:	eb 39                	jmp    402c5b <driver_post+0x68>
  402c22:	48 85 ff             	test   %rdi,%rdi
  402c25:	74 26                	je     402c4d <driver_post+0x5a>
  402c27:	80 3f 00             	cmpb   $0x0,(%rdi)
  402c2a:	74 21                	je     402c4d <driver_post+0x5a>
  402c2c:	4c 89 0c 24          	mov    %r9,(%rsp)
  402c30:	49 89 c9             	mov    %rcx,%r9
  402c33:	49 89 d0             	mov    %rdx,%r8
  402c36:	48 89 f9             	mov    %rdi,%rcx
  402c39:	48 89 f2             	mov    %rsi,%rdx
  402c3c:	be 9a 3c 00 00       	mov    $0x3c9a,%esi
  402c41:	bf 86 30 40 00       	mov    $0x403086,%edi
  402c46:	e8 9c f6 ff ff       	callq  4022e7 <submitr>
  402c4b:	eb 0e                	jmp    402c5b <driver_post+0x68>
  402c4d:	66 c7 03 4f 4b       	movw   $0x4b4f,(%rbx)
  402c52:	c6 43 02 00          	movb   $0x0,0x2(%rbx)
  402c56:	b8 00 00 00 00       	mov    $0x0,%eax
  402c5b:	48 83 c4 10          	add    $0x10,%rsp
  402c5f:	5b                   	pop    %rbx
  402c60:	c3                   	retq   

0000000000402c61 <check>:
  402c61:	89 f8                	mov    %edi,%eax
  402c63:	c1 e8 1c             	shr    $0x1c,%eax
  402c66:	85 c0                	test   %eax,%eax
  402c68:	74 1d                	je     402c87 <check+0x26>
  402c6a:	b9 00 00 00 00       	mov    $0x0,%ecx
  402c6f:	eb 0b                	jmp    402c7c <check+0x1b>
  402c71:	89 f8                	mov    %edi,%eax
  402c73:	d3 e8                	shr    %cl,%eax
  402c75:	3c 0a                	cmp    $0xa,%al
  402c77:	74 14                	je     402c8d <check+0x2c>
  402c79:	83 c1 08             	add    $0x8,%ecx
  402c7c:	83 f9 1f             	cmp    $0x1f,%ecx
  402c7f:	7e f0                	jle    402c71 <check+0x10>
  402c81:	b8 01 00 00 00       	mov    $0x1,%eax
  402c86:	c3                   	retq   
  402c87:	b8 00 00 00 00       	mov    $0x0,%eax
  402c8c:	c3                   	retq   
  402c8d:	b8 00 00 00 00       	mov    $0x0,%eax
  402c92:	c3                   	retq   

0000000000402c93 <gencookie>:
  402c93:	53                   	push   %rbx
  402c94:	83 c7 01             	add    $0x1,%edi
  402c97:	e8 84 df ff ff       	callq  400c20 <srandom@plt>
  402c9c:	e8 af e0 ff ff       	callq  400d50 <random@plt>
  402ca1:	89 c3                	mov    %eax,%ebx
  402ca3:	89 c7                	mov    %eax,%edi
  402ca5:	e8 b7 ff ff ff       	callq  402c61 <check>
  402caa:	85 c0                	test   %eax,%eax
  402cac:	74 ee                	je     402c9c <gencookie+0x9>
  402cae:	89 d8                	mov    %ebx,%eax
  402cb0:	5b                   	pop    %rbx
  402cb1:	c3                   	retq   
  402cb2:	66 2e 0f 1f 84 00 00 	nopw   %cs:0x0(%rax,%rax,1)
  402cb9:	00 00 00 
  402cbc:	0f 1f 40 00          	nopl   0x0(%rax)

0000000000402cc0 <__libc_csu_init>:
  402cc0:	41 57                	push   %r15
  402cc2:	41 89 ff             	mov    %edi,%r15d
  402cc5:	41 56                	push   %r14
  402cc7:	49 89 f6             	mov    %rsi,%r14
  402cca:	41 55                	push   %r13
  402ccc:	49 89 d5             	mov    %rdx,%r13
  402ccf:	41 54                	push   %r12
  402cd1:	4c 8d 25 38 21 20 00 	lea    0x202138(%rip),%r12        # 604e10 <__frame_dummy_init_array_entry>
  402cd8:	55                   	push   %rbp
  402cd9:	48 8d 2d 38 21 20 00 	lea    0x202138(%rip),%rbp        # 604e18 <__init_array_end>
  402ce0:	53                   	push   %rbx
  402ce1:	4c 29 e5             	sub    %r12,%rbp
  402ce4:	31 db                	xor    %ebx,%ebx
  402ce6:	48 c1 fd 03          	sar    $0x3,%rbp
  402cea:	48 83 ec 08          	sub    $0x8,%rsp
  402cee:	e8 d5 de ff ff       	callq  400bc8 <_init>
  402cf3:	48 85 ed             	test   %rbp,%rbp
  402cf6:	74 1e                	je     402d16 <__libc_csu_init+0x56>
  402cf8:	0f 1f 84 00 00 00 00 	nopl   0x0(%rax,%rax,1)
  402cff:	00 
  402d00:	4c 89 ea             	mov    %r13,%rdx
  402d03:	4c 89 f6             	mov    %r14,%rsi
  402d06:	44 89 ff             	mov    %r15d,%edi
  402d09:	41 ff 14 dc          	callq  *(%r12,%rbx,8)
  402d0d:	48 83 c3 01          	add    $0x1,%rbx
  402d11:	48 39 eb             	cmp    %rbp,%rbx
  402d14:	75 ea                	jne    402d00 <__libc_csu_init+0x40>
  402d16:	48 83 c4 08          	add    $0x8,%rsp
  402d1a:	5b                   	pop    %rbx
  402d1b:	5d                   	pop    %rbp
  402d1c:	41 5c                	pop    %r12
  402d1e:	41 5d                	pop    %r13
  402d20:	41 5e                	pop    %r14
  402d22:	41 5f                	pop    %r15
  402d24:	c3                   	retq   
  402d25:	90                   	nop
  402d26:	66 2e 0f 1f 84 00 00 	nopw   %cs:0x0(%rax,%rax,1)
  402d2d:	00 00 00 

0000000000402d30 <__libc_csu_fini>:
  402d30:	f3 c3                	repz retq 

Disassembly of section .fini:

0000000000402d34 <_fini>:
  402d34:	48 83 ec 08          	sub    $0x8,%rsp
  402d38:	48 83 c4 08          	add    $0x8,%rsp
  402d3c:	c3                   	retq   
